(dp0
(I23
I21
I26
I30
I0
tp1
(lp2
I4605
as(I30
I24
I22
I24
I0
tp3
(lp4
I358
aI359
aI360
aI361
aI1495
aI3161
as(I25
I30
I22
I23
I0
tp5
(lp6
I3001
aI3003
as(I29
I19
I22
I30
I0
tp7
(lp8
I3144
aI3145
aI3146
aI3147
aI3148
as(I26
I28
I25
I21
I0
tp9
(lp10
I698
aI2939
aI3810
as(I34
I22
I22
I22
I0
tp11
(lp12
I3217
as(I20
I31
I34
I15
I0
tp13
(lp14
I1952
as(I26
I26
I25
I22
I1
tp15
(lp16
I3411
aI3412
as(I32
I22
I28
I16
I2
tp17
(lp18
I4050
as(I20
I24
I25
I31
I0
tp19
(lp20
I2666
aI2667
aI2833
aI2834
aI2835
aI2840
as(I30
I26
I22
I22
I0
tp21
(lp22
I3917
aI3923
as(I25
I29
I24
I21
I1
tp23
(lp24
I3384
as(I26
I30
I21
I23
I0
tp25
(lp26
I2995
aI2996
as(I24
I27
I25
I24
I0
tp27
(lp28
I17
aI19
aI22
aI261
as(I29
I20
I21
I30
I0
tp29
(lp30
I735
aI3142
as(I35
I21
I24
I20
I0
tp31
(lp32
I1477
aI4233
as(I20
I20
I31
I29
I0
tp33
(lp34
I1747
aI1779
aI1780
aI1796
aI1797
as(I32
I29
I22
I17
I0
tp35
(lp36
I4173
aI4175
as(I30
I20
I27
I23
I0
tp37
(lp38
I4365
aI4366
as(I22
I32
I20
I26
I0
tp39
(lp40
I3736
aI3756
as(I27
I22
I22
I29
I0
tp41
(lp42
I4321
as(I26
I30
I25
I19
I0
tp43
(lp44
I638
aI639
as(I30
I19
I31
I20
I0
tp45
(lp46
I1413
aI4875
aI4886
aI4889
as(I37
I18
I23
I22
I0
tp47
(lp48
I4242
aI4249
as(I33
I21
I23
I23
I0
tp49
(lp50
I1487
aI1629
as(I22
I21
I28
I29
I0
tp51
(lp52
I4619
as(I26
I28
I32
I14
I0
tp53
(lp54
I854
as(I19
I29
I29
I22
I1
tp55
(lp56
I2158
aI2159
as(I27
I26
I20
I27
I0
tp57
(lp58
I127
as(I24
I20
I28
I28
I0
tp59
(lp60
I1832
aI1833
as(I22
I27
I20
I31
I0
tp61
(lp62
I3714
aI3721
as(I15
I34
I29
I22
I0
tp63
(lp64
I1166
aI1170
aI1172
as(I33
I20
I25
I22
I0
tp65
(lp66
I3283
aI3527
as(I22
I24
I24
I30
I0
tp67
(lp68
I2657
aI2843
aI2844
aI3040
as(I32
I22
I25
I21
I0
tp69
(lp70
I3514
as(I18
I30
I27
I25
I0
tp71
(lp72
I1220
as(I22
I20
I28
I30
I0
tp73
(lp74
I4612
aI4613
as(I27
I15
I24
I34
I0
tp75
(lp76
I3085
as(I23
I26
I28
I23
I0
tp77
(lp78
I30
aI35
aI248
aI256
aI257
aI624
aI2635
aI2636
aI3322
as(I24
I30
I23
I23
I0
tp79
(lp80
I2434
aI2954
as(I28
I19
I26
I27
I0
tp81
(lp82
I3592
aI3594
as(I27
I21
I33
I19
I0
tp83
(lp84
I2079
as(I23
I31
I26
I20
I0
tp85
(lp86
I691
aI692
as(I24
I31
I20
I25
I0
tp87
(lp88
I2986
as(I23
I31
I23
I23
I0
tp89
(lp90
I2972
aI2976
aI2978
aI2979
as(I35
I21
I25
I19
I0
tp91
(lp92
I4229
aI4230
as(I37
I21
I18
I23
I1
tp93
(lp94
I1551
as(I24
I30
I22
I24
I0
tp95
(lp96
I2432
as(I27
I21
I32
I20
I0
tp97
(lp98
I2073
aI2084
aI2086
as(I31
I20
I27
I22
I0
tp99
(lp100
I1470
aI3276
aI3277
aI4367
aI4368
as(I24
I29
I24
I23
I0
tp101
(lp102
I9
aI2435
aI3797
aI4802
as(I23
I29
I23
I25
I0
tp103
(lp104
I450
aI452
aI471
aI472
aI474
aI1254
aI1255
as(I29
I21
I22
I28
I0
tp105
(lp106
I965
aI3130
aI3131
aI3150
aI3151
aI4334
aI4335
as(I25
I26
I24
I25
I0
tp107
(lp108
I2262
aI2263
aI2264
aI2265
aI2282
aI2402
aI2403
aI2404
aI3690
aI3889
as(I25
I23
I31
I21
I0
tp109
(lp110
I4450
as(I29
I22
I27
I22
I0
tp111
(lp112
I1004
as(I38
I25
I16
I21
I0
tp113
(lp114
I1514
as(I25
I28
I27
I20
I0
tp115
(lp116
I1901
aI1902
aI4843
as(I26
I19
I30
I25
I0
tp117
(lp118
I556
as(I25
I17
I26
I31
I1
tp119
(lp120
I4559
as(I33
I29
I18
I20
I0
tp121
(lp122
I3968
aI3969
aI3971
aI3972
aI3974
as(I23
I30
I32
I15
I0
tp123
(lp124
I813
aI816
aI817
aI846
aI847
aI848
aI851
as(I28
I14
I24
I34
I0
tp125
(lp126
I3087
aI3099
aI3100
aI3101
aI3102
as(I25
I17
I28
I29
I1
tp127
(lp128
I4540
as(I29
I23
I21
I27
I0
tp129
(lp130
I928
aI929
aI931
aI932
aI4338
aI4349
aI4350
as(I25
I25
I27
I23
I0
tp131
(lp132
I1071
aI1100
aI2272
aI3822
aI3825
as(I22
I31
I24
I23
I0
tp133
(lp134
I2440
aI2441
aI2971
aI2974
aI2975
as(I21
I26
I30
I23
I0
tp135
(lp136
I1063
as(I25
I17
I29
I29
I0
tp137
(lp138
I2362
aI2363
as(I28
I19
I28
I25
I0
tp139
(lp140
I3566
aI3568
as(I29
I22
I23
I25
I1
tp141
(lp142
I4112
as(I29
I23
I20
I28
I0
tp143
(lp144
I722
aI724
aI956
aI4301
aI4308
aI4309
aI4310
aI4312
aI4339
aI4341
aI4348
as(I33
I28
I18
I21
I0
tp145
(lp146
I3970
aI3973
as(I21
I31
I25
I23
I0
tp147
(lp148
I1125
aI3784
as(I29
I25
I26
I20
I0
tp149
(lp150
I4158
as(I24
I29
I24
I22
I1
tp151
(lp152
I3380
as(I25
I31
I23
I21
I0
tp153
(lp154
I4815
aI4816
as(I19
I23
I27
I31
I0
tp155
(lp156
I2688
aI2689
aI2742
aI2745
aI2747
aI4673
aI4674
as(I17
I30
I29
I24
I0
tp157
(lp158
I1182
aI1183
as(I25
I24
I23
I28
I0
tp159
(lp160
I3677
aI3883
aI3884
as(I19
I30
I29
I21
I1
tp161
(lp162
I1976
aI2157
as(I22
I25
I27
I26
I0
tp163
(lp164
I104
aI1301
aI1302
aI1303
as(I31
I27
I21
I21
I0
tp165
(lp166
I3913
as(I27
I22
I29
I22
I0
tp167
(lp168
I2057
aI2063
aI2064
aI2065
aI2067
as(I35
I22
I19
I23
I1
tp169
(lp170
I1587
aI1588
aI1589
aI1590
aI1593
aI1594
as(I32
I22
I21
I24
I1
tp171
(lp172
I1608
aI1609
aI1618
as(I23
I20
I31
I26
I0
tp173
(lp174
I1316
aI1319
aI1815
as(I21
I28
I28
I23
I0
tp175
(lp176
I242
aI243
as(I28
I18
I30
I24
I0
tp177
(lp178
I3564
as(I31
I22
I23
I24
I0
tp179
(lp180
I980
aI1637
aI1639
aI1641
aI1642
as(I24
I26
I26
I24
I0
tp181
(lp182
I1092
as(I27
I23
I23
I27
I0
tp183
(lp184
I160
aI304
aI1688
aI3669
aI3672
aI3673
aI3675
as(I22
I28
I30
I20
I0
tp185
(lp186
I1919
as(I26
I22
I29
I23
I0
tp187
(lp188
I1361
aI1365
aI1369
aI2059
aI3616
aI4397
as(I24
I26
I29
I21
I0
tp189
(lp190
I3308
aI3309
as(I23
I21
I30
I26
I0
tp191
(lp192
I534
aI1320
aI1836
as(I18
I24
I29
I29
I0
tp193
(lp194
I4686
as(I35
I23
I26
I16
I0
tp195
(lp196
I4219
as(I25
I22
I26
I27
I0
tp197
(lp198
I1708
aI2296
aI2297
aI2381
as(I27
I23
I22
I28
I0
tp199
(lp200
I157
aI159
aI3869
aI4324
aI4327
as(I19
I31
I27
I23
I0
tp201
(lp202
I1144
aI1145
aI1146
aI1147
as(I21
I18
I29
I32
I0
tp203
(lp204
I2700
as(I20
I32
I31
I16
I1
tp205
(lp206
I1959
aI1960
as(I26
I22
I28
I24
I0
tp207
(lp208
I598
aI1033
aI1034
aI1035
aI1036
aI1368
aI4381
aI4386
aI4387
aI4399
aI4403
as(I16
I31
I29
I24
I0
tp209
(lp210
I1177
aI1181
aI1195
as(I33
I23
I19
I24
I1
tp211
(lp212
I1598
as(I27
I25
I26
I22
I0
tp213
(lp214
I2274
aI2276
aI2277
aI2888
aI2893
as(I33
I25
I21
I20
I1
tp215
(lp216
I4134
as(I20
I28
I29
I22
I1
tp217
(lp218
I2160
aI2163
as(I24
I23
I30
I23
I0
tp219
(lp220
I498
aI3846
as(I33
I20
I26
I21
I0
tp221
(lp222
I3268
as(I24
I29
I19
I28
I0
tp223
(lp224
I399
as(I24
I20
I26
I30
I0
tp225
(lp226
I4598
aI4599
aI4600
aI4601
aI4602
as(I24
I25
I29
I21
I1
tp227
(lp228
I4486
as(I32
I21
I19
I28
I0
tp229
(lp230
I4292
aI4293
as(I21
I28
I25
I25
I1
tp231
(lp232
I2210
as(I29
I27
I21
I23
I0
tp233
(lp234
I325
aI326
aI4764
as(I30
I23
I28
I19
I0
tp235
(lp236
I3500
aI3501
aI3502
aI3504
aI3505
aI3506
aI4417
aI4418
aI4419
aI4420
aI4423
aI4429
as(I26
I25
I25
I23
I1
tp237
(lp238
I3413
aI3414
aI3415
as(I25
I21
I27
I27
I0
tp239
(lp240
I185
aI1827
as(I24
I22
I31
I23
I0
tp241
(lp242
I1372
as(I27
I25
I24
I24
I0
tp243
(lp244
I296
aI297
aI309
aI1848
aI1849
aI2254
aI2256
aI2901
aI3898
as(I19
I26
I25
I30
I0
tp245
(lp246
I70
aI71
aI2675
aI2829
aI2830
as(I24
I27
I24
I24
I1
tp247
(lp248
I2241
as(I20
I22
I28
I30
I0
tp249
(lp250
I1742
as(I38
I18
I23
I21
I0
tp251
(lp252
I4246
aI4247
aI4248
as(I24
I23
I28
I25
I0
tp253
(lp254
I1083
aI1723
aI1840
aI1841
as(I25
I27
I23
I25
I0
tp255
(lp256
I436
aI2648
as(I26
I22
I26
I26
I0
tp257
(lp258
I2298
aI2868
as(I27
I28
I22
I23
I0
tp259
(lp260
I4750
aI4788
as(I24
I22
I30
I24
I0
tp261
(lp262
I530
aI609
aI610
aI1026
aI1027
aI1028
as(I15
I30
I30
I25
I0
tp263
(lp264
I1204
as(I21
I25
I29
I25
I0
tp265
(lp266
I3857
as(I16
I19
I32
I33
I0
tp267
(lp268
I1765
as(I28
I28
I21
I23
I0
tp269
(lp270
I318
aI319
aI321
aI4759
aI4760
aI4787
as(I31
I22
I27
I18
I2
tp271
(lp272
I4061
as(I27
I19
I26
I28
I0
tp273
(lp274
I2312
aI3593
as(I27
I30
I22
I21
I0
tp275
(lp276
I4778
aI4810
as(I29
I20
I31
I20
I0
tp277
(lp278
I1401
aI1410
aI1411
as(I27
I28
I24
I21
I0
tp279
(lp280
I2940
aI3809
as(I19
I27
I29
I25
I0
tp281
(lp282
I225
aI226
as(I20
I20
I30
I30
I0
tp283
(lp284
I1746
aI1782
as(I34
I21
I21
I24
I0
tp285
(lp286
I1626
aI1627
as(I16
I29
I25
I30
I0
tp287
(lp288
I2792
as(I32
I28
I23
I17
I0
tp289
(lp290
I4174
as(I23
I19
I26
I32
I0
tp291
(lp292
I3060
aI3061
aI3063
as(I30
I24
I27
I17
I2
tp293
(lp294
I4047
as(I28
I21
I25
I26
I0
tp295
(lp296
I3607
as(I20
I30
I30
I19
I1
tp297
(lp298
I1996
aI1999
as(I28
I22
I21
I29
I0
tp299
(lp300
I954
as(I31
I19
I23
I27
I0
tp301
(lp302
I4271
as(I28
I22
I30
I20
I0
tp303
(lp304
I1442
aI4860
aI4861
aI4862
aI4863
as(I17
I30
I28
I25
I0
tp305
(lp306
I1188
aI1189
aI1190
as(I36
I20
I18
I25
I1
tp307
(lp308
I1538
as(I33
I22
I19
I25
I1
tp309
(lp310
I1599
as(I32
I22
I24
I22
I0
tp311
(lp312
I995
aI996
as(I27
I24
I20
I29
I0
tp313
(lp314
I423
as(I18
I30
I26
I26
I0
tp315
(lp316
I1219
as(I21
I30
I34
I15
I0
tp317
(lp318
I819
aI838
as(I29
I21
I22
I27
I1
tp319
(lp320
I4108
aI4109
as(I29
I22
I26
I22
I1
tp321
(lp322
I4094
aI4095
as(I32
I21
I18
I29
I0
tp323
(lp324
I763
as(I23
I28
I23
I26
I0
tp325
(lp326
I442
aI475
aI1256
aI1257
aI2422
aI3012
aI3013
as(I32
I20
I28
I20
I0
tp327
(lp328
I1459
as(I22
I29
I34
I15
I0
tp329
(lp330
I822
as(I21
I34
I23
I22
I0
tp331
(lp332
I1129
as(I22
I26
I24
I28
I0
tp333
(lp334
I3698
as(I23
I28
I29
I20
I0
tp335
(lp336
I1918
as(I36
I25
I18
I21
I0
tp337
(lp338
I1507
as(I30
I21
I29
I18
I2
tp339
(lp340
I4081
as(I27
I18
I24
I31
I0
tp341
(lp342
I4584
as(I23
I29
I22
I26
I0
tp343
(lp344
I453
aI468
aI2421
aI2426
as(I28
I20
I23
I29
I0
tp345
(lp346
I3128
as(I34
I19
I22
I25
I0
tp347
(lp348
I4255
aI4256
as(I28
I26
I25
I21
I0
tp349
(lp350
I4156
as(I34
I26
I19
I21
I0
tp351
(lp352
I3940
aI3941
as(I24
I18
I27
I31
I0
tp353
(lp354
I2359
as(I20
I35
I27
I18
I0
tp355
(lp356
I680
as(I21
I34
I25
I20
I0
tp357
(lp358
I684
aI685
as(I28
I27
I25
I20
I0
tp359
(lp360
I3185
aI4147
aI4148
aI4149
as(I26
I18
I31
I25
I0
tp361
(lp362
I555
aI589
as(I30
I23
I20
I27
I0
tp363
(lp364
I924
aI937
aI4311
as(I32
I22
I26
I20
I0
tp365
(lp366
I3509
as(I20
I20
I24
I36
I0
tp367
(lp368
I2726
as(I26
I24
I28
I21
I1
tp369
(lp370
I4490
aI4491
aI4492
as(I24
I17
I28
I31
I0
tp371
(lp372
I2332
aI2342
aI2343
as(I25
I30
I23
I22
I0
tp373
(lp374
I2948
aI2949
aI2952
aI4821
as(I25
I31
I26
I18
I0
tp375
(lp376
I2605
aI2617
as(I30
I22
I31
I17
I0
tp377
(lp378
I1397
as(I25
I17
I28
I30
I0
tp379
(lp380
I2356
as(I26
I26
I24
I23
I1
tp381
(lp382
I3417
aI3419
as(I25
I22
I28
I25
I0
tp383
(lp384
I4388
as(I23
I24
I26
I27
I0
tp385
(lp386
I1299
aI2547
as(I18
I30
I29
I22
I1
tp387
(lp388
I2156
as(I20
I19
I26
I35
I0
tp389
(lp390
I2722
as(I32
I27
I22
I18
I1
tp391
(lp392
I3997
aI4003
aI4004
as(I25
I31
I22
I22
I0
tp393
(lp394
I2593
as(I20
I31
I32
I17
I0
tp395
(lp396
I1931
aI1935
aI1936
aI1937
aI1938
aI1939
as(I31
I15
I31
I23
I0
tp397
(lp398
I3556
aI3557
as(I28
I25
I27
I20
I0
tp399
(lp400
I1861
aI1865
aI3475
as(I26
I24
I30
I20
I0
tp401
(lp402
I1012
aI4439
as(I25
I19
I31
I25
I0
tp403
(lp404
I552
as(I26
I26
I20
I28
I0
tp405
(lp406
I128
aI145
as(I23
I23
I30
I24
I0
tp407
(lp408
I619
aI1838
aI3844
aI3845
aI3847
aI4630
aI4633
as(I23
I24
I24
I29
I0
tp409
(lp410
I2656
aI3041
aI3042
aI3044
aI3045
as(I32
I15
I30
I23
I0
tp411
(lp412
I3555
as(I27
I23
I24
I26
I0
tp413
(lp414
I303
aI305
aI904
aI905
aI906
aI2873
as(I28
I19
I22
I31
I0
tp415
(lp416
I740
aI747
aI751
as(I27
I27
I19
I27
I0
tp417
(lp418
I375
aI376
aI378
as(I19
I29
I28
I23
I1
tp419
(lp420
I2166
as(I27
I26
I21
I26
I0
tp421
(lp422
I712
as(I30
I23
I27
I18
I2
tp423
(lp424
I4059
as(I24
I34
I25
I17
I0
tp425
(lp426
I645
as(I39
I24
I16
I21
I0
tp427
(lp428
I1515
as(I27
I27
I25
I21
I0
tp429
(lp430
I3181
as(I25
I17
I25
I33
I0
tp431
(lp432
I2349
as(I21
I28
I26
I25
I0
tp433
(lp434
I48
aI49
aI1122
as(I24
I28
I34
I14
I0
tp435
(lp436
I858
as(I25
I15
I29
I30
I1
tp437
(lp438
I4546
as(I24
I26
I28
I22
I0
tp439
(lp440
I27
aI29
aI32
aI258
aI2637
as(I28
I25
I28
I19
I0
tp441
(lp442
I1862
aI3476
aI4431
as(I35
I20
I24
I21
I0
tp443
(lp444
I4235
aI4236
aI4237
as(I31
I21
I27
I21
I0
tp445
(lp446
I1456
aI1457
as(I28
I28
I16
I28
I0
tp447
(lp448
I775
aI776
aI777
as(I35
I26
I18
I21
I0
tp449
(lp450
I3957
as(I27
I20
I25
I28
I0
tp451
(lp452
I169
aI170
aI174
aI2308
aI2309
aI2310
aI3596
as(I26
I25
I24
I24
I1
tp453
(lp454
I3416
as(I19
I22
I28
I31
I0
tp455
(lp456
I2691
as(I29
I23
I27
I20
I1
tp457
(lp458
I2034
aI2037
as(I24
I29
I25
I22
I0
tp459
(lp460
I8
aI1910
aI3795
aI3796
as(I21
I19
I31
I29
I0
tp461
(lp462
I1798
aI1799
aI1800
as(I25
I26
I25
I24
I0
tp463
(lp464
I20
aI21
aI1846
aI2283
aI2284
aI2291
aI2407
aI2408
aI2905
aI3336
aI3892
as(I25
I25
I23
I27
I0
tp465
(lp466
I124
aI3678
aI3680
aI3885
as(I26
I26
I28
I20
I0
tp467
(lp468
I1871
aI1872
as(I25
I26
I23
I26
I0
tp469
(lp470
I432
aI433
aI2555
aI2556
aI2557
aI2558
aI2650
aI2651
aI3348
aI3691
aI3886
as(I25
I28
I24
I23
I0
tp471
(lp472
I2414
aI2415
aI2944
aI2945
aI4797
aI4798
aI4800
aI4803
as(I28
I29
I16
I27
I0
tp473
(lp474
I778
as(I34
I26
I23
I17
I0
tp475
(lp476
I4181
as(I23
I30
I33
I14
I0
tp477
(lp478
I841
aI842
aI843
aI844
as(I26
I27
I25
I21
I1
tp479
(lp480
I3405
aI3409
as(I34
I20
I25
I21
I0
tp481
(lp482
I3263
aI3266
aI3267
aI3517
as(I28
I20
I25
I27
I0
tp483
(lp484
I167
aI1697
aI1698
aI3590
aI3591
as(I33
I19
I28
I20
I0
tp485
(lp486
I1460
as(I29
I20
I30
I20
I1
tp487
(lp488
I4506
aI4507
as(I29
I17
I31
I23
I0
tp489
(lp490
I3560
aI3561
aI3562
as(I37
I20
I19
I23
I1
tp491
(lp492
I1540
aI1546
as(I21
I26
I31
I22
I0
tp493
(lp494
I1061
aI1062
aI2130
aI2131
as(I25
I27
I22
I26
I0
tp495
(lp496
I435
aI2649
aI3355
aI3356
as(I34
I22
I21
I23
I0
tp497
(lp498
I3221
as(I30
I21
I25
I24
I0
tp499
(lp500
I3577
aI3578
aI3579
as(I22
I20
I25
I33
I0
tp501
(lp502
I3056
as(I21
I28
I31
I19
I1
tp503
(lp504
I1989
as(I30
I26
I21
I23
I0
tp505
(lp506
I3918
aI3919
aI3921
aI4765
aI4766
as(I27
I29
I24
I20
I0
tp507
(lp508
I1894
as(I34
I25
I19
I22
I0
tp509
(lp510
I1504
aI3937
aI3938
aI3942
as(I22
I29
I25
I23
I1
tp511
(lp512
I2215
aI2225
aI3365
as(I21
I27
I30
I22
I0
tp513
(lp514
I2132
aI2141
as(I34
I22
I25
I19
I0
tp515
(lp516
I3255
aI3257
aI4226
aI4227
aI4228
as(I30
I26
I20
I24
I0
tp517
(lp518
I338
as(I20
I22
I25
I33
I0
tp519
(lp520
I2731
aI2732
as(I30
I26
I25
I19
I0
tp521
(lp522
I3464
aI3465
aI4162
as(I24
I21
I30
I25
I0
tp523
(lp524
I601
aI602
as(I23
I25
I27
I25
I0
tp525
(lp526
I212
aI213
aI1094
as(I25
I21
I26
I28
I0
tp527
(lp528
I184
aI2382
as(I36
I19
I23
I22
I0
tp529
(lp530
I4241
as(I32
I23
I22
I23
I0
tp531
(lp532
I3209
aI3211
aI3213
as(I27
I23
I32
I18
I0
tp533
(lp534
I1393
as(I30
I20
I21
I29
I0
tp535
(lp536
I942
aI3140
aI3141
as(I31
I22
I20
I27
I0
tp537
(lp538
I938
aI4297
aI4299
as(I32
I28
I22
I18
I0
tp539
(lp540
I4169
as(I33
I28
I19
I20
I0
tp541
(lp542
I3961
aI3962
aI3975
as(I21
I23
I27
I29
I0
tp543
(lp544
I1289
aI4725
as(I29
I21
I29
I21
I0
tp545
(lp546
I1448
aI4867
as(I35
I24
I29
I12
I0
tp547
(lp548
I4208
as(I32
I22
I23
I23
I0
tp549
(lp550
I1630
aI1631
aI3233
as(I26
I27
I26
I21
I0
tp551
(lp552
I3183
as(I23
I28
I28
I20
I1
tp553
(lp554
I2019
as(I22
I18
I33
I27
I0
tp555
(lp556
I1803
aI1804
aI1805
aI1810
aI1811
as(I30
I23
I28
I17
I2
tp557
(lp558
I4039
aI4040
aI4041
aI4042
aI4045
as(I25
I22
I27
I26
I0
tp559
(lp560
I595
aI1828
aI1829
as(I28
I22
I20
I30
I0
tp561
(lp562
I4315
as(I22
I23
I26
I29
I0
tp563
(lp564
I1297
aI2491
aI3047
aI4638
as(I20
I27
I27
I26
I0
tp565
(lp566
I46
as(I32
I17
I33
I18
I0
tp567
(lp568
I4897
as(I20
I32
I30
I17
I1
tp569
(lp570
I1963
aI1964
aI1968
as(I32
I22
I22
I24
I0
tp571
(lp572
I1493
aI1619
aI1621
aI1622
as(I26
I28
I23
I22
I1
tp573
(lp574
I3372
as(I16
I33
I29
I22
I0
tp575
(lp576
I1165
as(I33
I22
I20
I24
I1
tp577
(lp578
I1578
as(I32
I22
I27
I19
I0
tp579
(lp580
I3508
as(I23
I31
I22
I24
I0
tp581
(lp582
I464
aI465
aI466
as(I24
I30
I17
I29
I0
tp583
(lp584
I395
as(I28
I22
I32
I18
I0
tp585
(lp586
I1394
as(I21
I29
I25
I25
I0
tp587
(lp588
I1250
aI2463
aI3789
as(I24
I30
I26
I20
I0
tp589
(lp590
I5
aI693
as(I33
I22
I21
I23
I1
tp591
(lp592
I1575
aI1577
as(I30
I20
I29
I19
I2
tp593
(lp594
I4085
as(I24
I23
I31
I22
I0
tp595
(lp596
I496
aI497
as(I25
I27
I29
I18
I1
tp597
(lp598
I3444
as(I26
I18
I24
I32
I0
tp599
(lp600
I3068
aI3070
aI3071
as(I17
I24
I30
I29
I0
tp601
(lp602
I4685
as(I27
I18
I30
I25
I0
tp603
(lp604
I561
as(I25
I17
I23
I35
I0
tp605
(lp606
I3078
as(I24
I17
I27
I32
I0
tp607
(lp608
I2333
aI2334
aI2345
aI2358
as(I24
I33
I23
I20
I0
tp609
(lp610
I2600
as(I25
I26
I26
I23
I0
tp611
(lp612
I25
aI2641
aI3824
as(I28
I26
I24
I22
I0
tp613
(lp614
I2579
aI3909
as(I34
I26
I18
I22
I0
tp615
(lp616
I3939
aI3956
as(I32
I24
I20
I24
I0
tp617
(lp618
I355
aI3929
aI3930
aI3931
as(I28
I23
I23
I26
I0
tp619
(lp620
I907
aI1683
aI1686
aI1687
aI1689
as(I33
I25
I22
I20
I0
tp621
(lp622
I4135
aI4137
as(I24
I23
I29
I24
I0
tp623
(lp624
I620
aI1025
aI1839
aI3852
aI4631
as(I29
I23
I25
I23
I0
tp625
(lp626
I1000
aI1001
as(I18
I29
I29
I24
I0
tp627
(lp628
I1232
aI1233
aI1234
as(I26
I18
I30
I26
I0
tp629
(lp630
I560
aI590
aI591
as(I27
I28
I23
I22
I0
tp631
(lp632
I2585
aI3804
aI3805
aI3807
aI3808
as(I33
I23
I23
I21
I0
tp633
(lp634
I991
as(I26
I21
I28
I25
I0
tp635
(lp636
I4402
as(I21
I31
I24
I24
I0
tp637
(lp638
I2968
aI2970
aI3785
as(I26
I24
I27
I22
I1
tp639
(lp640
I4493
as(I29
I25
I21
I25
I0
tp641
(lp642
I3163
as(I30
I22
I30
I18
I0
tp643
(lp644
I1426
as(I25
I17
I31
I27
I0
tp645
(lp646
I584
as(I20
I31
I21
I28
I0
tp647
(lp648
I3729
aI3732
as(I25
I18
I31
I26
I0
tp649
(lp650
I559
aI588
as(I25
I26
I22
I27
I0
tp651
(lp652
I3354
aI3692
aI3693
as(I19
I31
I34
I16
I0
tp653
(lp654
I1948
as(I32
I25
I21
I22
I0
tp655
(lp656
I1499
aI3927
as(I27
I28
I25
I20
I0
tp657
(lp658
I2
aI1879
aI1893
aI1895
aI1896
as(I26
I27
I16
I31
I0
tp659
(lp660
I410
as(I30
I19
I32
I19
I0
tp661
(lp662
I4874
aI4876
aI4877
aI4884
aI4890
as(I19
I24
I25
I32
I0
tp663
(lp664
I2680
aI2734
as(I29
I21
I29
I19
I2
tp665
(lp666
I4084
as(I29
I25
I23
I23
I0
tp667
(lp668
I3198
as(I27
I24
I27
I21
I1
tp669
(lp670
I2031
aI2032
as(I25
I19
I30
I26
I0
tp671
(lp672
I557
aI558
as(I35
I27
I20
I18
I0
tp673
(lp674
I3981
as(I23
I26
I28
I22
I1
tp675
(lp676
I2023
aI4471
as(I28
I18
I24
I30
I0
tp677
(lp678
I4583
aI4587
as(I24
I21
I25
I30
I0
tp679
(lp680
I2377
as(I27
I23
I27
I23
I0
tp681
(lp682
I1007
as(I31
I26
I24
I19
I0
tp683
(lp684
I3241
as(I23
I31
I23
I22
I1
tp685
(lp686
I2222
as(I30
I24
I28
I16
I2
tp687
(lp688
I4044
as(I23
I21
I29
I27
I0
tp689
(lp690
I1309
aI1322
aI1323
aI1352
aI1820
as(I27
I27
I24
I22
I0
tp691
(lp692
I705
as(I24
I30
I27
I18
I1
tp693
(lp694
I3430
aI3437
as(I25
I20
I34
I21
I0
tp695
(lp696
I2098
as(I26
I24
I24
I26
I0
tp697
(lp698
I301
aI2393
aI2553
as(I38
I21
I18
I22
I1
tp699
(lp700
I1548
aI1549
as(I25
I26
I24
I24
I1
tp701
(lp702
I3392
aI3418
as(I28
I22
I25
I25
I0
tp703
(lp704
I4407
aI4408
aI4409
as(I20
I30
I34
I16
I0
tp705
(lp706
I1947
as(I24
I26
I31
I19
I0
tp707
(lp708
I4458
as(I23
I21
I28
I28
I0
tp709
(lp710
I1324
aI1823
aI1824
as(I27
I24
I21
I28
I0
tp711
(lp712
I149
as(I30
I27
I26
I16
I1
tp713
(lp714
I4030
aI4031
as(I27
I23
I25
I24
I1
tp715
(lp716
I4100
as(I21
I30
I35
I14
I0
tp717
(lp718
I820
as(I31
I21
I26
I22
I0
tp719
(lp720
I4362
as(I28
I24
I25
I23
I0
tp721
(lp722
I2884
aI2912
aI3291
aI3292
as(I20
I27
I24
I29
I0
tp723
(lp724
I2484
aI2485
aI2827
aI3704
as(I27
I25
I25
I23
I0
tp725
(lp726
I295
aI2258
aI2259
aI2278
aI2894
aI2911
aI2915
aI2917
aI2918
aI2921
aI3293
aI3294
aI3901
as(I25
I26
I28
I21
I0
tp727
(lp728
I3481
aI3482
as(I22
I19
I26
I33
I0
tp729
(lp730
I3057
aI3058
aI3059
as(I20
I21
I26
I33
I0
tp731
(lp732
I2730
as(I22
I28
I25
I25
I0
tp733
(lp734
I2464
aI3790
as(I29
I18
I29
I23
I1
tp735
(lp736
I4513
as(I35
I19
I21
I25
I0
tp737
(lp738
I4257
as(I20
I33
I23
I24
I0
tp739
(lp740
I2961
as(I31
I23
I27
I17
I2
tp741
(lp742
I4046
aI4048
aI4057
aI4058
as(I21
I19
I30
I30
I0
tp743
(lp744
I1786
as(I25
I17
I29
I28
I1
tp745
(lp746
I4539
as(I18
I28
I30
I23
I1
tp747
(lp748
I2152
as(I31
I21
I24
I24
I0
tp749
(lp750
I1657
aI1658
aI1659
aI3580
as(I19
I29
I29
I23
I0
tp751
(lp752
I1235
aI1237
aI1243
as(I19
I23
I26
I32
I0
tp753
(lp754
I2681
aI2744
as(I23
I22
I30
I25
I0
tp755
(lp756
I533
aI603
aI604
aI606
aI608
aI616
aI1837
aI4629
as(I30
I22
I26
I22
I0
tp757
(lp758
I4360
aI4361
as(I21
I20
I29
I30
I0
tp759
(lp760
I4611
as(I25
I27
I27
I21
I0
tp761
(lp762
I2927
aI2928
as(I28
I23
I20
I29
I0
tp763
(lp764
I4342
aI4343
as(I19
I20
I24
I37
I0
tp765
(lp766
I2725
as(I21
I28
I28
I22
I1
tp767
(lp768
I2161
as(I22
I30
I23
I24
I1
tp769
(lp770
I2204
as(I23
I24
I27
I26
I0
tp771
(lp772
I106
aI1105
aI3330
aI3860
aI4625
as(I23
I26
I23
I28
I0
tp773
(lp774
I1260
as(I27
I19
I29
I25
I0
tp775
(lp776
I3567
as(I22
I31
I26
I21
I0
tp777
(lp778
I3768
as(I18
I30
I28
I23
I1
tp779
(lp780
I2167
as(I22
I25
I24
I29
I0
tp781
(lp782
I2487
aI2488
as(I22
I29
I30
I18
I1
tp783
(lp784
I2005
aI2006
as(I25
I24
I30
I21
I0
tp785
(lp786
I1011
as(I20
I31
I33
I16
I0
tp787
(lp788
I1932
aI1934
aI1940
aI1945
as(I20
I20
I29
I31
I0
tp789
(lp790
I2693
as(I22
I32
I22
I24
I0
tp791
(lp792
I459
aI462
aI463
as(I21
I22
I27
I30
I0
tp793
(lp794
I1741
as(I29
I11
I25
I35
I0
tp795
(lp796
I3092
aI3093
aI3094
aI3095
as(I18
I28
I25
I29
I0
tp797
(lp798
I62
aI63
aI65
aI66
aI67
aI2784
aI2788
aI2807
aI2808
as(I24
I21
I33
I22
I0
tp799
(lp800
I883
aI884
aI2101
aI2104
aI2105
as(I19
I27
I31
I23
I0
tp801
(lp802
I232
as(I36
I26
I20
I18
I0
tp803
(lp804
I3982
aI3984
aI3985
as(I30
I20
I20
I30
I0
tp805
(lp806
I734
aI757
as(I21
I30
I21
I28
I0
tp807
(lp808
I3726
aI3730
aI3731
as(I22
I24
I27
I27
I0
tp809
(lp810
I105
aI1287
as(I25
I24
I29
I21
I1
tp811
(lp812
I4489
as(I30
I25
I19
I26
I0
tp813
(lp814
I351
as(I21
I23
I26
I30
I0
tp815
(lp816
I2660
aI2661
aI2663
as(I24
I15
I28
I32
I1
tp817
(lp818
I4548
aI4549
aI4550
as(I28
I18
I22
I32
I0
tp819
(lp820
I3112
as(I36
I24
I29
I11
I0
tp821
(lp822
I4207
as(I22
I27
I22
I29
I0
tp823
(lp824
I3022
aI3023
as(I32
I26
I25
I17
I0
tp825
(lp826
I3243
as(I31
I20
I20
I29
I0
tp827
(lp828
I962
as(I22
I24
I26
I28
I0
tp829
(lp830
I1294
aI1298
aI4639
aI4715
aI4728
as(I18
I30
I25
I27
I0
tp831
(lp832
I2814
as(I37
I25
I17
I21
I0
tp833
(lp834
I1509
as(I24
I17
I26
I32
I1
tp835
(lp836
I4556
aI4557
as(I25
I28
I27
I19
I1
tp837
(lp838
I3434
aI3455
as(I22
I22
I27
I29
I0
tp839
(lp840
I1290
aI1291
aI1292
as(I30
I22
I18
I30
I0
tp841
(lp842
I767
as(I25
I23
I26
I26
I0
tp843
(lp844
I1710
aI2295
as(I31
I18
I33
I18
I0
tp845
(lp846
I4880
aI4899
as(I21
I29
I24
I26
I0
tp847
(lp848
I2447
aI2448
aI2456
aI2462
as(I25
I27
I23
I24
I1
tp849
(lp850
I2242
aI3388
as(I32
I20
I18
I30
I0
tp851
(lp852
I762
aI764
aI765
as(I23
I29
I21
I27
I0
tp853
(lp854
I3017
as(I20
I31
I23
I25
I1
tp855
(lp856
I2198
aI2199
as(I34
I22
I20
I23
I1
tp857
(lp858
I1576
aI1579
aI1584
as(I24
I17
I33
I26
I0
tp859
(lp860
I548
as(I34
I23
I17
I25
I1
tp861
(lp862
I1526
aI1528
as(I35
I21
I19
I24
I1
tp863
(lp864
I1596
as(I28
I26
I27
I19
I0
tp865
(lp866
I3459
as(I33
I22
I23
I22
I0
tp867
(lp868
I1484
aI1485
aI1486
aI3219
as(I29
I23
I19
I29
I0
tp869
(lp870
I4313
aI4344
as(I32
I24
I23
I21
I0
tp871
(lp872
I986
aI987
aI988
as(I20
I35
I25
I20
I0
tp873
(lp874
I668
as(I25
I31
I25
I19
I0
tp875
(lp876
I640
aI2603
as(I25
I18
I27
I30
I0
tp877
(lp878
I2330
as(I25
I24
I33
I18
I0
tp879
(lp880
I871
aI872
aI1389
aI1390
as(I24
I23
I30
I22
I1
tp881
(lp882
I4481
as(I29
I27
I22
I22
I0
tp883
(lp884
I324
aI3172
aI3173
aI3175
as(I28
I29
I25
I18
I0
tp885
(lp886
I2614
as(I29
I19
I29
I22
I1
tp887
(lp888
I4511
as(I29
I25
I20
I26
I0
tp889
(lp890
I716
aI926
as(I15
I32
I29
I24
I0
tp891
(lp892
I1208
aI1209
as(I26
I25
I22
I27
I0
tp893
(lp894
I125
aI3028
as(I25
I31
I21
I23
I0
tp895
(lp896
I2993
as(I31
I17
I34
I18
I0
tp897
(lp898
I4900
as(I23
I29
I28
I19
I1
tp899
(lp900
I2017
aI3439
aI3440
aI3441
as(I36
I22
I17
I24
I1
tp901
(lp902
I1530
aI1533
as(I24
I22
I33
I21
I0
tp903
(lp904
I1374
aI1375
aI1377
as(I28
I25
I29
I18
I0
tp905
(lp906
I1436
as(I22
I18
I31
I29
I0
tp907
(lp908
I1801
as(I32
I23
I23
I22
I0
tp909
(lp910
I989
aI990
aI3234
as(I31
I23
I19
I27
I0
tp911
(lp912
I4298
as(I26
I26
I29
I19
I0
tp913
(lp914
I4848
as(I20
I17
I28
I35
I0
tp915
(lp916
I2708
as(I23
I23
I23
I31
I0
tp917
(lp918
I2518
aI2519
aI2520
aI2521
aI2522
aI3038
as(I30
I25
I28
I17
I0
tp919
(lp920
I3496
as(I29
I20
I26
I25
I0
tp921
(lp922
I190
aI192
aI193
as(I19
I27
I32
I22
I0
tp923
(lp924
I2134
aI2145
aI2146
as(I28
I22
I23
I27
I0
tp925
(lp926
I1703
aI4331
aI4332
as(I20
I29
I25
I25
I1
tp927
(lp928
I2189
aI2190
aI2191
aI2192
aI2211
as(I26
I29
I16
I29
I0
tp929
(lp930
I385
aI386
aI407
as(I14
I32
I29
I25
I0
tp931
(lp932
I1207
as(I31
I23
I18
I28
I0
tp933
(lp934
I730
as(I27
I27
I21
I25
I0
tp935
(lp936
I2563
aI2564
aI2565
aI2566
as(I26
I29
I26
I19
I0
tp937
(lp938
I274
aI287
aI4831
as(I22
I23
I27
I28
I0
tp939
(lp940
I1293
aI1295
aI1296
aI1729
aI4637
aI4716
as(I23
I30
I30
I17
I0
tp941
(lp942
I808
aI810
as(I37
I23
I15
I24
I1
tp943
(lp944
I1560
aI1561
as(I26
I28
I22
I23
I1
tp945
(lp946
I2244
aI2245
aI2246
as(I16
I33
I30
I21
I0
tp947
(lp948
I1160
as(I26
I27
I33
I14
I0
tp949
(lp950
I855
as(I30
I16
I31
I23
I0
tp951
(lp952
I3558
aI3559
as(I24
I18
I27
I30
I1
tp953
(lp954
I4531
as(I25
I26
I21
I28
I0
tp955
(lp956
I3353
as(I25
I26
I23
I25
I1
tp957
(lp958
I3391
as(I23
I27
I27
I23
I0
tp959
(lp960
I34
aI40
aI250
as(I22
I27
I29
I22
I0
tp961
(lp962
I245
aI3318
as(I25
I27
I28
I19
I1
tp963
(lp964
I3447
aI3450
as(I24
I29
I21
I26
I0
tp965
(lp966
I2420
aI3016
as(I25
I25
I22
I28
I0
tp967
(lp968
I429
aI3027
aI3876
aI3880
aI3881
aI3882
as(I26
I20
I27
I27
I0
tp969
(lp970
I2300
aI2302
aI2304
as(I24
I24
I29
I23
I0
tp971
(lp972
I500
aI501
aI504
aI506
aI1015
aI1024
aI1047
aI1048
aI1049
aI1050
aI1051
aI1068
as(I26
I28
I24
I21
I1
tp973
(lp974
I3373
as(I25
I26
I27
I22
I0
tp975
(lp976
I26
aI2926
aI3302
aI3821
as(I23
I28
I24
I25
I0
tp977
(lp978
I451
aI1113
as(I34
I20
I26
I20
I0
tp979
(lp980
I3518
aI3521
as(I28
I17
I30
I25
I0
tp981
(lp982
I562
aI563
as(I22
I21
I26
I31
I0
tp983
(lp984
I4606
as(I24
I23
I32
I21
I0
tp985
(lp986
I495
aI521
aI523
as(I24
I24
I33
I19
I0
tp987
(lp988
I4444
as(I20
I25
I23
I32
I0
tp989
(lp990
I2511
aI2512
aI2513
aI2514
as(I17
I22
I31
I30
I0
tp991
(lp992
I1751
aI1752
as(I20
I34
I29
I17
I0
tp993
(lp994
I677
as(I25
I27
I26
I22
I0
tp995
(lp996
I266
aI267
aI3301
aI3820
as(I29
I24
I22
I25
I0
tp997
(lp998
I365
aI366
as(I26
I21
I29
I24
I0
tp999
(lp1000
I1037
aI1363
aI3615
aI4398
as(I26
I28
I17
I29
I0
tp1001
(lp1002
I388
aI389
aI392
as(I27
I23
I25
I25
I0
tp1003
(lp1004
I307
aI902
aI903
aI1852
aI4406
as(I26
I28
I26
I20
I0
tp1005
(lp1006
I288
aI1897
aI1898
aI1899
aI1900
as(I29
I19
I29
I23
I0
tp1007
(lp1008
I4377
as(I21
I27
I29
I23
I0
tp1009
(lp1010
I241
aI244
aI246
as(I21
I28
I29
I21
I1
tp1011
(lp1012
I2162
as(I28
I19
I21
I32
I0
tp1013
(lp1014
I750
as(I19
I23
I28
I30
I0
tp1015
(lp1016
I4678
aI4679
aI4680
aI4681
as(I22
I30
I27
I21
I0
tp1017
(lp1018
I3770
aI3772
aI3773
aI3774
as(I30
I21
I22
I27
I0
tp1019
(lp1020
I917
aI918
aI919
aI970
aI1676
aI1677
aI1678
aI4273
as(I19
I28
I32
I20
I1
tp1021
(lp1022
I1979
as(I26
I23
I22
I29
I0
tp1023
(lp1024
I2527
as(I25
I23
I33
I19
I0
tp1025
(lp1026
I1388
as(I24
I22
I32
I22
I0
tp1027
(lp1028
I524
aI1373
aI1376
aI2102
aI2103
aI2106
as(I18
I28
I24
I30
I0
tp1029
(lp1030
I2781
aI2782
aI2789
aI2790
aI2799
aI2805
as(I23
I18
I32
I27
I0
tp1031
(lp1032
I546
aI1808
aI1812
as(I26
I22
I24
I27
I1
tp1033
(lp1034
I4105
as(I24
I21
I26
I29
I0
tp1035
(lp1036
I183
aI2378
as(I30
I22
I28
I18
I2
tp1037
(lp1038
I4060
as(I14
I35
I29
I22
I0
tp1039
(lp1040
I1168
aI1169
as(I22
I18
I32
I28
I0
tp1041
(lp1042
I1802
as(I21
I31
I33
I15
I0
tp1043
(lp1044
I1944
aI1953
as(I22
I27
I28
I23
I0
tp1045
(lp1046
I247
aI249
aI252
aI253
aI254
aI255
aI3319
as(I24
I30
I26
I19
I1
tp1047
(lp1048
I3432
as(I19
I19
I25
I37
I0
tp1049
(lp1050
I2724
as(I28
I25
I19
I28
I0
tp1051
(lp1052
I426
as(I27
I20
I26
I27
I0
tp1053
(lp1054
I168
aI2303
aI3595
as(I27
I26
I27
I20
I0
tp1055
(lp1056
I3472
as(I28
I21
I26
I25
I0
tp1057
(lp1058
I189
aI194
aI3575
as(I29
I21
I25
I25
I0
tp1059
(lp1060
I191
aI1700
aI3576
as(I24
I31
I26
I19
I0
tp1061
(lp1062
I2618
aI2619
as(I25
I22
I29
I24
I0
tp1063
(lp1064
I599
aI1030
aI1031
aI1032
aI1038
aI1039
aI1364
aI1367
as(I25
I17
I26
I32
I0
tp1065
(lp1066
I2347
aI2348
aI2350
as(I20
I27
I25
I28
I0
tp1067
(lp1068
I2760
aI2761
aI2766
aI2770
aI2771
aI2821
aI2824
aI2825
aI2826
as(I25
I28
I24
I22
I1
tp1069
(lp1070
I2234
aI3378
aI3381
aI3382
aI3383
aI3386
aI3423
as(I22
I31
I23
I23
I1
tp1071
(lp1072
I2221
as(I22
I22
I26
I30
I0
tp1073
(lp1074
I1734
aI1735
aI1737
aI1739
aI1740
aI2492
aI2493
aI3048
as(I31
I21
I20
I28
I0
tp1075
(lp1076
I945
aI1674
aI4294
as(I33
I18
I26
I23
I0
tp1077
(lp1078
I3530
as(I22
I28
I27
I23
I0
tp1079
(lp1080
I3780
as(I25
I23
I24
I28
I0
tp1081
(lp1082
I2856
as(I33
I25
I22
I19
I1
tp1083
(lp1084
I3994
as(I21
I27
I30
I21
I1
tp1085
(lp1086
I4467
as(I29
I24
I26
I20
I1
tp1087
(lp1088
I2036
as(I27
I18
I28
I27
I0
tp1089
(lp1090
I1333
aI2324
aI2325
as(I28
I20
I21
I31
I0
tp1091
(lp1092
I739
aI748
aI749
aI752
aI753
as(I20
I28
I26
I26
I0
tp1093
(lp1094
I50
as(I22
I28
I35
I15
I0
tp1095
(lp1096
I824
aI825
as(I24
I28
I27
I21
I0
tp1097
(lp1098
I628
as(I23
I22
I32
I23
I0
tp1099
(lp1100
I2107
aI2108
as(I34
I23
I18
I24
I1
tp1101
(lp1102
I1527
as(I25
I28
I19
I28
I0
tp1103
(lp1104
I400
aI402
as(I27
I17
I32
I24
I0
tp1105
(lp1106
I571
as(I23
I22
I31
I24
I0
tp1107
(lp1108
I611
aI612
aI889
as(I24
I27
I22
I27
I0
tp1109
(lp1110
I3346
aI3351
aI3694
as(I25
I19
I32
I24
I0
tp1111
(lp1112
I553
as(I25
I29
I28
I18
I0
tp1113
(lp1114
I803
aI805
as(I30
I23
I22
I25
I0
tp1115
(lp1116
I3157
aI3160
as(I28
I23
I21
I28
I0
tp1117
(lp1118
I4337
as(I32
I24
I22
I22
I0
tp1119
(lp1120
I983
aI984
aI3205
aI3206
as(I30
I22
I29
I19
I0
tp1121
(lp1122
I1417
aI1418
aI1423
aI4426
as(I32
I23
I22
I22
I1
tp1123
(lp1124
I4130
as(I25
I29
I23
I23
I0
tp1125
(lp1126
I2587
aI2588
aI2589
aI2951
aI2953
aI3000
aI3006
as(I27
I24
I27
I22
I0
tp1127
(lp1128
I1856
aI1857
aI1858
aI2886
aI2887
aI2891
as(I31
I22
I20
I26
I1
tp1129
(lp1130
I1601
aI1602
as(I26
I21
I26
I27
I0
tp1131
(lp1132
I1707
aI2306
aI2865
aI2866
aI2867
as(I24
I29
I28
I18
I1
tp1133
(lp1134
I3452
aI3453
as(I16
I19
I31
I34
I0
tp1135
(lp1136
I1764
as(I38
I24
I17
I21
I0
tp1137
(lp1138
I1517
as(I27
I19
I24
I30
I0
tp1139
(lp1140
I4582
aI4585
as(I31
I27
I24
I17
I1
tp1141
(lp1142
I4007
aI4010
aI4011
as(I21
I30
I33
I16
I0
tp1143
(lp1144
I835
aI836
aI1946
aI1954
as(I32
I22
I23
I22
I1
tp1145
(lp1146
I4126
aI4128
as(I21
I26
I24
I29
I0
tp1147
(lp1148
I2478
aI2486
aI3699
aI3700
as(I26
I23
I26
I25
I0
tp1149
(lp1150
I199
aI200
aI899
aI2294
aI3636
aI3637
as(I25
I28
I25
I22
I0
tp1151
(lp1152
I268
aI292
aI796
aI3812
aI4804
as(I27
I22
I21
I30
I0
tp1153
(lp1154
I4319
as(I24
I21
I34
I21
I0
tp1155
(lp1156
I882
as(I25
I24
I28
I23
I0
tp1157
(lp1158
I1042
aI1043
aI1044
aI3619
aI3620
aI3621
aI3826
aI3829
as(I36
I17
I25
I22
I0
tp1159
(lp1160
I3543
as(I22
I29
I28
I21
I0
tp1161
(lp1162
I2630
as(I26
I20
I25
I29
I0
tp1163
(lp1164
I173
aI1342
aI2384
aI2385
as(I27
I23
I26
I24
I0
tp1165
(lp1166
I1853
aI3639
aI3640
as(I31
I17
I33
I19
I0
tp1167
(lp1168
I4879
as(I38
I23
I15
I23
I1
tp1169
(lp1170
I1559
as(I25
I19
I28
I28
I0
tp1171
(lp1172
I1329
aI1330
aI1331
aI2365
as(I27
I26
I19
I28
I0
tp1173
(lp1174
I131
aI138
aI425
as(I25
I21
I25
I29
I0
tp1175
(lp1176
I181
aI182
as(I32
I18
I31
I19
I0
tp1177
(lp1178
I4882
aI4893
aI4895
as(I31
I23
I24
I22
I0
tp1179
(lp1180
I3236
as(I31
I25
I19
I25
I0
tp1181
(lp1182
I347
as(I21
I29
I25
I24
I1
tp1183
(lp1184
I2207
aI2209
aI2212
aI2213
as(I24
I29
I25
I21
I1
tp1185
(lp1186
I3375
as(I26
I17
I32
I25
I0
tp1187
(lp1188
I566
aI567
aI572
aI576
as(I24
I26
I30
I20
I0
tp1189
(lp1190
I4459
as(I31
I20
I21
I28
I0
tp1191
(lp1192
I963
aI3125
aI4275
aI4280
aI4287
as(I25
I29
I29
I17
I0
tp1193
(lp1194
I806
as(I21
I29
I21
I29
I0
tp1195
(lp1196
I3725
as(I24
I25
I24
I27
I0
tp1197
(lp1198
I122
aI123
aI1266
aI1267
aI1275
aI2654
as(I20
I32
I23
I24
I1
tp1199
(lp1200
I2200
as(I30
I20
I23
I27
I0
tp1201
(lp1202
I967
aI4272
as(I25
I26
I26
I22
I1
tp1203
(lp1204
I2027
as(I26
I24
I26
I23
I1
tp1205
(lp1206
I4494
as(I29
I18
I30
I22
I1
tp1207
(lp1208
I4510
aI4512
as(I27
I21
I27
I25
I0
tp1209
(lp1210
I187
aI188
aI196
aI3611
as(I20
I27
I30
I23
I0
tp1211
(lp1212
I2143
as(I25
I25
I24
I26
I0
tp1213
(lp1214
I3342
aI3653
aI3681
aI3682
aI3683
aI3684
aI4744
as(I24
I29
I27
I20
I0
tp1215
(lp1216
I634
aI801
as(I21
I19
I29
I31
I0
tp1217
(lp1218
I2694
aI2695
as(I17
I31
I30
I22
I0
tp1219
(lp1220
I1157
as(I36
I20
I24
I20
I0
tp1221
(lp1222
I4232
as(I32
I21
I23
I24
I0
tp1223
(lp1224
I1492
as(I33
I19
I27
I21
I0
tp1225
(lp1226
I3523
as(I18
I26
I28
I28
I0
tp1227
(lp1228
I4669
as(I32
I30
I18
I20
I0
tp1229
(lp1230
I3966
aI3967
as(I21
I22
I25
I32
I0
tp1231
(lp1232
I3050
aI3052
as(I28
I23
I30
I19
I0
tp1233
(lp1234
I1429
as(I29
I22
I28
I21
I0
tp1235
(lp1236
I1447
as(I39
I23
I17
I21
I0
tp1237
(lp1238
I1516
as(I18
I23
I29
I30
I0
tp1239
(lp1240
I4682
as(I36
I24
I26
I14
I0
tp1241
(lp1242
I4198
aI4199
aI4200
as(I22
I32
I23
I23
I0
tp1243
(lp1244
I2957
aI2973
as(I33
I26
I18
I23
I0
tp1245
(lp1246
I3945
as(I20
I34
I28
I18
I0
tp1247
(lp1248
I678
as(I24
I22
I27
I27
I0
tp1249
(lp1250
I1716
aI2380
as(I18
I23
I28
I31
I0
tp1251
(lp1252
I2690
as(I24
I29
I26
I21
I0
tp1253
(lp1254
I290
aI694
aI1906
aI1911
as(I26
I25
I29
I20
I0
tp1255
(lp1256
I3484
as(I26
I28
I16
I30
I0
tp1257
(lp1258
I387
aI408
aI413
aI414
as(I17
I28
I24
I31
I0
tp1259
(lp1260
I2796
as(I30
I27
I21
I22
I0
tp1261
(lp1262
I4767
as(I26
I25
I23
I26
I0
tp1263
(lp1264
I2554
aI2559
as(I27
I28
I26
I19
I0
tp1265
(lp1266
I0
aI275
aI276
aI277
aI278
aI279
aI286
aI1878
aI1880
aI1881
aI1891
as(I25
I20
I27
I28
I0
tp1267
(lp1268
I1328
aI1345
aI1348
aI1349
as(I28
I19
I26
I26
I1
tp1269
(lp1270
I4520
as(I22
I28
I31
I18
I1
tp1271
(lp1272
I2010
as(I27
I17
I30
I26
I0
tp1273
(lp1274
I564
as(I27
I28
I16
I29
I0
tp1275
(lp1276
I383
aI384
as(I23
I29
I24
I24
I0
tp1277
(lp1278
I1252
aI2436
as(I23
I25
I25
I27
I0
tp1279
(lp1280
I1276
aI4737
as(I20
I27
I27
I25
I1
tp1281
(lp1282
I2181
aI2184
as(I22
I30
I26
I22
I0
tp1283
(lp1284
I3775
aI3776
aI3777
as(I26
I17
I33
I24
I0
tp1285
(lp1286
I568
aI569
aI570
aI573
aI575
as(I19
I27
I30
I24
I0
tp1287
(lp1288
I229
aI230
aI1225
aI1226
aI1228
aI1229
aI1230
as(I27
I17
I31
I25
I0
tp1289
(lp1290
I565
as(I22
I25
I23
I30
I0
tp1291
(lp1292
I2845
aI2846
as(I31
I22
I18
I29
I0
tp1293
(lp1294
I729
aI731
as(I23
I25
I24
I28
I0
tp1295
(lp1296
I3043
as(I25
I19
I26
I29
I1
tp1297
(lp1298
I4526
aI4528
as(I21
I23
I25
I31
I0
tp1299
(lp1300
I2503
aI2836
aI2841
aI3051
as(I26
I29
I17
I28
I0
tp1301
(lp1302
I405
aI406
as(I36
I22
I25
I17
I0
tp1303
(lp1304
I4221
aI4224
as(I31
I24
I20
I25
I0
tp1305
(lp1306
I354
as(I24
I20
I27
I29
I0
tp1307
(lp1308
I1346
as(I22
I24
I29
I25
I0
tp1309
(lp1310
I3835
aI3838
aI3840
aI3842
as(I26
I29
I27
I18
I0
tp1311
(lp1312
I4836
as(I27
I24
I22
I27
I0
tp1313
(lp1314
I150
aI151
aI152
aI155
aI156
aI3674
as(I18
I30
I24
I28
I0
tp1315
(lp1316
I2812
aI2813
as(I22
I31
I33
I14
I0
tp1317
(lp1318
I840
as(I23
I30
I31
I16
I0
tp1319
(lp1320
I809
aI811
as(I19
I29
I27
I24
I1
tp1321
(lp1322
I2172
aI2173
as(I31
I21
I18
I30
I0
tp1323
(lp1324
I732
aI761
aI766
as(I38
I20
I18
I23
I1
tp1325
(lp1326
I1550
as(I28
I17
I23
I32
I0
tp1327
(lp1328
I3111
as(I29
I21
I24
I26
I0
tp1329
(lp1330
I973
aI1648
aI3585
aI3606
as(I32
I21
I26
I21
I0
tp1331
(lp1332
I1472
aI3281
as(I27
I17
I23
I33
I0
tp1333
(lp1334
I3082
aI3083
aI3107
aI3108
aI3109
as(I27
I31
I25
I17
I0
tp1335
(lp1336
I2608
aI2610
as(I25
I28
I25
I21
I1
tp1337
(lp1338
I2235
aI3374
aI3385
as(I23
I17
I28
I32
I0
tp1339
(lp1340
I2344
as(I30
I18
I28
I23
I1
tp1341
(lp1342
I4514
as(I24
I25
I23
I28
I0
tp1343
(lp1344
I430
as(I23
I26
I26
I25
I0
tp1345
(lp1346
I480
aI1093
as(I32
I26
I23
I19
I0
tp1347
(lp1348
I3240
as(I24
I29
I22
I25
I0
tp1349
(lp1350
I448
aI449
aI2419
aI2983
aI2984
aI3358
as(I24
I18
I29
I29
I0
tp1351
(lp1352
I2361
as(I20
I32
I21
I27
I0
tp1353
(lp1354
I3734
as(I20
I31
I30
I18
I1
tp1355
(lp1356
I1962
aI1969
as(I32
I25
I23
I20
I0
tp1357
(lp1358
I4138
as(I18
I29
I26
I26
I1
tp1359
(lp1360
I2176
as(I25
I30
I26
I19
I0
tp1361
(lp1362
I637
aI2604
aI4830
as(I21
I34
I27
I18
I0
tp1363
(lp1364
I679
as(I28
I26
I26
I20
I0
tp1365
(lp1366
I3471
aI3473
aI3474
aI4157
as(I23
I28
I25
I24
I0
tp1367
(lp1368
I262
aI1114
aI1115
aI1117
aI1120
aI3791
aI3792
as(I24
I28
I26
I22
I0
tp1369
(lp1370
I12
aI291
aI695
aI696
aI797
aI3813
aI3814
aI3815
as(I24
I25
I32
I19
I0
tp1371
(lp1372
I4457
as(I36
I20
I23
I21
I0
tp1373
(lp1374
I4251
as(I19
I33
I28
I20
I0
tp1375
(lp1376
I661
aI671
aI672
as(I34
I22
I19
I24
I1
tp1377
(lp1378
I1580
aI1582
aI1583
aI1585
aI1586
aI1597
as(I21
I30
I32
I16
I1
tp1379
(lp1380
I1955
as(I16
I21
I31
I32
I0
tp1381
(lp1382
I1754
aI1755
as(I23
I28
I34
I15
I0
tp1383
(lp1384
I859
aI862
as(I21
I35
I26
I18
I0
tp1385
(lp1386
I682
as(I34
I17
I26
I23
I0
tp1387
(lp1388
I3540
aI3547
aI3548
as(I29
I24
I23
I24
I0
tp1389
(lp1390
I364
as(I33
I23
I21
I23
I0
tp1391
(lp1392
I3210
aI3214
aI3215
aI3222
aI3230
aI3231
as(I30
I18
I30
I21
I1
tp1393
(lp1394
I4509
as(I30
I22
I23
I25
I0
tp1395
(lp1396
I976
aI979
aI1636
aI1644
aI1645
aI1646
as(I34
I27
I24
I15
I0
tp1397
(lp1398
I4193
as(I31
I26
I23
I20
I0
tp1399
(lp1400
I4139
aI4140
as(I21
I25
I28
I26
I0
tp1401
(lp1402
I1285
aI1304
aI3858
as(I26
I24
I25
I25
I0
tp1403
(lp1404
I299
aI898
aI2399
aI3634
aI3895
as(I17
I26
I26
I31
I0
tp1405
(lp1406
I2778
as(I19
I27
I31
I22
I1
tp1407
(lp1408
I2147
as(I25
I31
I20
I24
I0
tp1409
(lp1410
I2991
as(I29
I20
I30
I19
I2
tp1411
(lp1412
I4083
as(I31
I22
I21
I25
I1
tp1413
(lp1414
I1604
aI1607
aI1615
aI1616
aI1617
as(I26
I24
I23
I27
I0
tp1415
(lp1416
I3029
aI3659
aI3670
aI3671
aI3679
as(I30
I21
I23
I26
I0
tp1417
(lp1418
I968
aI969
aI971
aI974
aI975
aI1647
aI1649
as(I27
I16
I23
I34
I0
tp1419
(lp1420
I3081
aI3084
aI3105
aI3106
as(I26
I24
I22
I28
I0
tp1421
(lp1422
I3870
as(I25
I21
I33
I21
I0
tp1423
(lp1424
I881
aI1380
aI1381
aI1382
aI1383
aI2088
aI2089
aI2099
as(I23
I25
I32
I20
I0
tp1425
(lp1426
I4446
as(I28
I22
I23
I26
I1
tp1427
(lp1428
I4111
as(I20
I27
I32
I20
I1
tp1429
(lp1430
I1981
as(I14
I33
I30
I23
I0
tp1431
(lp1432
I1174
as(I23
I18
I33
I26
I0
tp1433
(lp1434
I547
as(I24
I21
I27
I28
I0
tp1435
(lp1436
I1325
aI1326
aI1327
aI1717
aI1718
aI1719
aI1826
aI2379
as(I27
I27
I27
I19
I0
tp1437
(lp1438
I284
aI1874
as(I31
I23
I21
I25
I0
tp1439
(lp1440
I3159
as(I24
I23
I26
I27
I0
tp1441
(lp1442
I1709
aI1711
aI2544
aI2549
as(I30
I25
I26
I19
I0
tp1443
(lp1444
I3467
aI3468
aI4159
aI4161
as(I26
I17
I31
I26
I0
tp1445
(lp1446
I586
aI587
as(I24
I24
I29
I22
I1
tp1447
(lp1448
I4480
as(I27
I27
I26
I20
I0
tp1449
(lp1450
I1
aI3184
as(I30
I24
I22
I23
I1
tp1451
(lp1452
I4120
as(I32
I23
I21
I24
I0
tp1453
(lp1454
I3224
aI3225
aI3226
as(I27
I27
I23
I23
I0
tp1455
(lp1456
I704
aI707
aI2576
aI2577
aI4749
as(I30
I21
I27
I22
I0
tp1457
(lp1458
I4363
aI4364
as(I24
I31
I27
I18
I0
tp1459
(lp1460
I2620
aI2621
aI2622
aI2623
as(I26
I25
I25
I24
I0
tp1461
(lp1462
I298
aI2257
aI2260
aI2279
aI2285
aI2288
aI2289
aI2396
aI2400
aI2902
aI2903
aI2916
aI3893
aI3894
aI3899
aI3900
as(I29
I21
I30
I18
I2
tp1463
(lp1464
I4080
aI4082
as(I27
I25
I23
I25
I0
tp1465
(lp1466
I1850
aI4755
as(I24
I27
I25
I23
I1
tp1467
(lp1468
I2229
aI3398
aI3421
as(I30
I23
I21
I25
I1
tp1469
(lp1470
I1605
aI1606
as(I27
I21
I26
I26
I0
tp1471
(lp1472
I3608
aI3609
aI3610
as(I16
I32
I30
I22
I0
tp1473
(lp1474
I1158
aI1159
aI1161
as(I33
I18
I27
I22
I0
tp1475
(lp1476
I3531
aI3532
aI3533
aI3534
as(I19
I28
I29
I24
I0
tp1477
(lp1478
I234
aI237
aI1224
as(I20
I23
I28
I29
I0
tp1479
(lp1480
I4659
as(I30
I19
I31
I18
I2
tp1481
(lp1482
I4071
as(I23
I27
I21
I29
I0
tp1483
(lp1484
I3024
as(I19
I29
I25
I27
I0
tp1485
(lp1486
I2454
aI2815
aI2818
as(I29
I17
I30
I24
I0
tp1487
(lp1488
I3563
as(I21
I24
I29
I26
I0
tp1489
(lp1490
I3836
aI3837
as(I24
I24
I22
I30
I0
tp1491
(lp1492
I2525
aI2536
as(I33
I19
I21
I27
I0
tp1493
(lp1494
I4263
aI4264
aI4267
as(I21
I25
I25
I29
I0
tp1495
(lp1496
I4646
as(I33
I19
I26
I22
I0
tp1497
(lp1498
I3525
as(I35
I25
I21
I18
I1
tp1499
(lp1500
I3989
as(I23
I22
I28
I27
I0
tp1501
(lp1502
I1715
aI1821
aI1822
aI4623
as(I24
I27
I23
I26
I0
tp1503
(lp1504
I434
aI445
aI3349
as(I21
I23
I24
I32
I0
tp1505
(lp1506
I2837
aI2838
as(I28
I28
I19
I25
I0
tp1507
(lp1508
I784
as(I30
I23
I23
I24
I0
tp1509
(lp1510
I362
aI363
aI977
aI1635
aI3156
aI4355
aI4357
as(I25
I27
I25
I23
I0
tp1511
(lp1512
I15
aI23
aI24
aI2411
aI2413
aI2642
aI2897
aI4794
aI4795
aI4796
as(I29
I17
I23
I31
I0
tp1513
(lp1514
I3114
as(I34
I21
I23
I22
I0
tp1515
(lp1516
I1481
as(I30
I26
I24
I19
I1
tp1517
(lp1518
I4013
as(I28
I29
I21
I22
I0
tp1519
(lp1520
I4784
aI4785
aI4786
as(I20
I18
I28
I34
I0
tp1521
(lp1522
I2702
as(I33
I29
I21
I17
I0
tp1523
(lp1524
I4171
aI4172
as(I34
I25
I24
I17
I0
tp1525
(lp1526
I3249
as(I26
I21
I27
I26
I0
tp1527
(lp1528
I186
aI594
aI2299
as(I35
I26
I22
I17
I0
tp1529
(lp1530
I4179
aI4182
aI4189
aI4190
as(I31
I22
I21
I26
I0
tp1531
(lp1532
I921
aI922
aI950
as(I37
I19
I20
I23
I1
tp1533
(lp1534
I1541
as(I21
I26
I25
I28
I0
tp1535
(lp1536
I2476
aI2477
aI4647
as(I19
I30
I26
I25
I0
tp1537
(lp1538
I1221
as(I34
I25
I20
I21
I0
tp1539
(lp1540
I1501
aI1502
aI1503
as(I24
I30
I18
I28
I0
tp1541
(lp1542
I396
as(I21
I33
I24
I22
I0
tp1543
(lp1544
I1127
aI1130
as(I21
I29
I35
I15
I0
tp1545
(lp1546
I821
aI823
aI827
aI828
as(I23
I26
I29
I21
I1
tp1547
(lp1548
I2021
as(I30
I20
I29
I21
I0
tp1549
(lp1550
I4868
aI4869
as(I22
I29
I29
I20
I0
tp1551
(lp1552
I2627
as(I30
I20
I22
I28
I0
tp1553
(lp1554
I964
aI3124
aI3126
aI4276
aI4277
aI4278
aI4279
as(I23
I28
I30
I18
I1
tp1555
(lp1556
I2007
aI2008
aI2009
aI2011
as(I23
I25
I31
I21
I0
tp1557
(lp1558
I493
aI510
aI511
aI512
aI513
aI514
aI2126
aI2127
as(I21
I29
I24
I25
I1
tp1559
(lp1560
I2206
as(I30
I19
I28
I23
I0
tp1561
(lp1562
I3273
aI3274
as(I24
I23
I23
I30
I0
tp1563
(lp1564
I2523
aI2524
aI2541
aI3037
as(I26
I16
I31
I27
I0
tp1565
(lp1566
I582
aI585
as(I29
I24
I28
I17
I2
tp1567
(lp1568
I4036
aI4037
aI4038
as(I28
I19
I25
I28
I0
tp1569
(lp1570
I2311
aI3597
as(I29
I23
I24
I23
I1
tp1571
(lp1572
I4116
aI4117
aI4118
as(I22
I24
I28
I26
I0
tp1573
(lp1574
I108
aI1286
aI1305
aI3859
as(I27
I26
I25
I22
I0
tp1575
(lp1576
I294
aI2922
as(I24
I25
I25
I26
I0
tp1577
(lp1578
I116
aI117
aI1108
aI1110
aI4738
aI4739
as(I15
I21
I31
I33
I0
tp1579
(lp1580
I1756
as(I32
I27
I24
I16
I1
tp1581
(lp1582
I4009
as(I22
I22
I25
I31
I0
tp1583
(lp1584
I1738
aI2494
aI2496
aI2497
aI2498
aI2500
aI2502
aI3049
aI3053
as(I15
I19
I32
I34
I0
tp1585
(lp1586
I1760
aI1761
as(I14
I31
I30
I25
I0
tp1587
(lp1588
I1198
as(I22
I33
I19
I26
I0
tp1589
(lp1590
I3737
as(I20
I27
I31
I22
I0
tp1591
(lp1592
I2133
aI2137
aI2138
aI2142
aI2144
as(I32
I20
I27
I21
I0
tp1593
(lp1594
I1471
aI3269
aI3279
aI3280
as(I21
I29
I26
I24
I0
tp1595
(lp1596
I1123
as(I26
I28
I27
I18
I1
tp1597
(lp1598
I3456
as(I29
I24
I27
I19
I1
tp1599
(lp1600
I2035
as(I17
I20
I31
I32
I0
tp1601
(lp1602
I1768
aI1769
as(I20
I28
I25
I27
I0
tp1603
(lp1604
I51
aI52
aI2816
aI2817
as(I32
I19
I22
I27
I0
tp1605
(lp1606
I4268
aI4269
aI4270
as(I35
I24
I17
I23
I1
tp1607
(lp1608
I1567
aI1568
aI1569
as(I24
I18
I28
I30
I0
tp1609
(lp1610
I2360
as(I24
I28
I23
I25
I0
tp1611
(lp1612
I440
aI441
aI443
aI446
aI447
aI3008
aI3009
as(I29
I26
I25
I19
I1
tp1613
(lp1614
I4023
as(I23
I24
I28
I25
I0
tp1615
(lp1616
I107
aI109
aI110
aI111
aI214
aI895
aI3833
aI3834
aI4626
aI4627
as(I26
I18
I28
I28
I0
tp1617
(lp1618
I1332
aI2326
aI2327
as(I29
I22
I29
I20
I0
tp1619
(lp1620
I1416
aI1431
aI1432
aI1450
as(I28
I21
I28
I22
I1
tp1621
(lp1622
I4091
as(I32
I24
I21
I23
I0
tp1623
(lp1624
I1498
aI3223
aI3229
as(I30
I22
I28
I20
I0
tp1625
(lp1626
I1445
aI1446
aI1451
aI4424
aI4425
as(I29
I24
I25
I22
I0
tp1627
(lp1628
I3903
as(I33
I26
I19
I22
I0
tp1629
(lp1630
I3936
aI3947
aI3953
aI3955
as(I35
I22
I17
I25
I1
tp1631
(lp1632
I1529
as(I21
I31
I30
I17
I1
tp1633
(lp1634
I1966
aI1967
aI1993
as(I29
I25
I22
I24
I0
tp1635
(lp1636
I3169
as(I17
I28
I25
I30
I0
tp1637
(lp1638
I2800
aI2804
aI2806
as(I22
I33
I23
I22
I0
tp1639
(lp1640
I1128
as(I35
I25
I19
I21
I0
tp1641
(lp1642
I1505
as(I27
I28
I27
I18
I0
tp1643
(lp1644
I280
aI1882
aI1889
aI1890
as(I34
I15
I28
I23
I0
tp1645
(lp1646
I3551
as(I33
I27
I18
I22
I0
tp1647
(lp1648
I3948
aI3949
aI3950
as(I29
I19
I32
I20
I0
tp1649
(lp1650
I1412
as(I26
I28
I24
I22
I0
tp1651
(lp1652
I795
aI2941
aI2942
aI2946
aI3802
aI3803
aI3811
as(I27
I28
I17
I28
I0
tp1653
(lp1654
I382
aI780
as(I26
I27
I24
I23
I0
tp1655
(lp1656
I706
aI2248
aI2252
aI2410
aI2643
aI2644
aI2943
aI4793
aI4799
as(I22
I27
I28
I22
I1
tp1657
(lp1658
I4473
as(I34
I28
I18
I20
I0
tp1659
(lp1660
I3960
as(I19
I30
I27
I23
I1
tp1661
(lp1662
I2168
aI2169
as(I35
I16
I26
I23
I0
tp1663
(lp1664
I3549
as(I18
I25
I28
I29
I0
tp1665
(lp1666
I4688
as(I26
I26
I19
I29
I0
tp1667
(lp1668
I132
as(I31
I22
I19
I28
I0
tp1669
(lp1670
I958
aI959
aI4295
aI4296
as(I29
I20
I24
I27
I0
tp1671
(lp1672
I3586
aI3587
aI3588
aI3589
aI3602
as(I33
I30
I18
I19
I0
tp1673
(lp1674
I3965
as(I16
I28
I25
I31
I0
tp1675
(lp1676
I2795
as(I28
I24
I24
I24
I0
tp1677
(lp1678
I3897
as(I31
I23
I20
I26
I0
tp1679
(lp1680
I923
as(I36
I25
I20
I18
I1
tp1681
(lp1682
I3990
aI3991
as(I27
I24
I23
I26
I0
tp1683
(lp1684
I153
aI154
aI302
aI2874
aI3656
aI3657
aI3658
as(I28
I22
I28
I21
I1
tp1685
(lp1686
I2044
aI2048
aI2049
aI2050
aI2052
aI4501
as(I22
I23
I29
I26
I0
tp1687
(lp1688
I1727
aI4635
as(I31
I20
I30
I17
I2
tp1689
(lp1690
I4065
aI4066
aI4068
aI4076
aI4077
aI4078
as(I19
I29
I26
I25
I1
tp1691
(lp1692
I2174
as(I30
I27
I24
I19
I0
tp1693
(lp1694
I3188
aI3190
aI4164
as(I15
I29
I25
I31
I0
tp1695
(lp1696
I2794
as(I26
I22
I24
I28
I0
tp1697
(lp1698
I2860
aI2861
aI3661
aI3866
aI3867
as(I27
I24
I29
I20
I0
tp1699
(lp1700
I1867
as(I24
I28
I27
I20
I1
tp1701
(lp1702
I3428
as(I32
I21
I27
I20
I0
tp1703
(lp1704
I1458
as(I20
I31
I35
I14
I0
tp1705
(lp1706
I1951
as(I27
I22
I25
I25
I1
tp1707
(lp1708
I4101
as(I22
I28
I26
I24
I0
tp1709
(lp1710
I1121
aI3781
as(I23
I26
I27
I24
I0
tp1711
(lp1712
I36
as(I18
I26
I25
I31
I0
tp1713
(lp1714
I2676
aI2779
as(I24
I29
I23
I24
I0
tp1715
(lp1716
I2418
as(I29
I19
I30
I21
I1
tp1717
(lp1718
I4508
as(I28
I27
I17
I28
I0
tp1719
(lp1720
I774
as(I35
I27
I21
I17
I0
tp1721
(lp1722
I4178
aI4188
as(I26
I17
I25
I32
I0
tp1723
(lp1724
I4569
as(I30
I18
I33
I19
I0
tp1725
(lp1726
I4878
as(I28
I13
I24
I35
I0
tp1727
(lp1728
I3088
aI3089
aI3090
as(I27
I16
I26
I31
I0
tp1729
(lp1730
I4564
as(I23
I30
I28
I18
I1
tp1731
(lp1732
I3438
as(I14
I32
I30
I24
I0
tp1733
(lp1734
I1175
as(I33
I26
I24
I17
I0
tp1735
(lp1736
I3244
aI3247
aI3248
as(I21
I30
I30
I19
I0
tp1737
(lp1738
I1924
as(I18
I29
I24
I29
I0
tp1739
(lp1740
I2783
aI2809
aI2810
aI2811
as(I28
I23
I28
I21
I0
tp1741
(lp1742
I2055
aI4414
as(I29
I24
I20
I27
I0
tp1743
(lp1744
I925
aI927
as(I36
I23
I26
I15
I0
tp1745
(lp1746
I4218
as(I26
I24
I32
I18
I0
tp1747
(lp1748
I1391
as(I31
I26
I20
I23
I0
tp1749
(lp1750
I337
aI339
as(I26
I28
I28
I18
I0
tp1751
(lp1752
I4837
aI4838
aI4839
aI4840
as(I28
I19
I27
I25
I1
tp1753
(lp1754
I4519
as(I25
I18
I26
I31
I0
tp1755
(lp1756
I2336
aI2339
aI2351
aI4571
as(I24
I19
I32
I25
I0
tp1757
(lp1758
I550
as(I22
I30
I25
I23
I0
tp1759
(lp1760
I2438
aI2439
as(I22
I24
I23
I31
I0
tp1761
(lp1762
I2516
aI2517
as(I23
I24
I31
I22
I0
tp1763
(lp1764
I1056
aI2110
aI2111
aI2118
aI2119
as(I32
I18
I32
I18
I0
tp1765
(lp1766
I4881
aI4896
aI4898
as(I23
I34
I22
I21
I0
tp1767
(lp1768
I2598
as(I21
I33
I27
I19
I0
tp1769
(lp1770
I655
aI656
aI657
aI658
aI674
as(I30
I25
I17
I28
I0
tp1771
(lp1772
I772
as(I25
I24
I26
I25
I0
tp1773
(lp1774
I201
aI202
aI203
aI207
aI208
aI897
aI1078
aI2267
aI2293
aI3340
aI3643
aI3646
aI3647
aI4742
as(I24
I21
I28
I27
I0
tp1775
(lp1776
I1720
aI1721
aI1825
aI1831
aI1834
as(I26
I22
I25
I26
I1
tp1777
(lp1778
I4103
aI4104
as(I29
I20
I32
I19
I0
tp1779
(lp1780
I1400
as(I21
I29
I29
I20
I1
tp1781
(lp1782
I1973
as(I30
I25
I27
I18
I0
tp1783
(lp1784
I3498
as(I31
I20
I22
I27
I0
tp1785
(lp1786
I4283
as(I23
I25
I30
I22
I0
tp1787
(lp1788
I492
aI509
aI1054
as(I27
I19
I22
I32
I0
tp1789
(lp1790
I743
aI744
as(I29
I26
I22
I23
I0
tp1791
(lp1792
I3170
aI3920
as(I33
I20
I24
I23
I0
tp1793
(lp1794
I3528
as(I31
I20
I28
I21
I0
tp1795
(lp1796
I1469
aI3278
as(I28
I25
I21
I26
I0
tp1797
(lp1798
I370
as(I20
I28
I26
I25
I1
tp1799
(lp1800
I2180
aI2185
aI2186
aI2187
as(I26
I21
I34
I19
I0
tp1801
(lp1802
I879
as(I22
I26
I21
I31
I0
tp1803
(lp1804
I3713
as(I27
I15
I23
I35
I0
tp1805
(lp1806
I3104
as(I30
I22
I22
I26
I0
tp1807
(lp1808
I949
as(I22
I23
I28
I27
I0
tp1809
(lp1810
I1728
aI4636
as(I21
I30
I25
I23
I1
tp1811
(lp1812
I2214
as(I31
I18
I29
I22
I0
tp1813
(lp1814
I4373
as(I23
I32
I24
I21
I0
tp1815
(lp1816
I3765
as(I21
I31
I21
I27
I0
tp1817
(lp1818
I3728
as(I29
I22
I28
I20
I1
tp1819
(lp1820
I2038
aI2042
aI2043
aI2045
as(I20
I33
I26
I21
I0
tp1821
(lp1822
I1135
as(I28
I23
I22
I27
I0
tp1823
(lp1824
I934
aI4325
aI4326
as(I27
I30
I25
I18
I0
tp1825
(lp1826
I2615
as(I14
I30
I31
I25
I0
tp1827
(lp1828
I1202
aI1203
as(I23
I29
I29
I19
I0
tp1829
(lp1830
I2626
aI2628
as(I20
I32
I20
I28
I0
tp1831
(lp1832
I3740
aI3741
aI3742
aI3743
as(I20
I31
I31
I17
I1
tp1833
(lp1834
I1961
aI1965
as(I21
I30
I29
I19
I1
tp1835
(lp1836
I1972
aI1997
aI1998
as(I18
I27
I25
I30
I0
tp1837
(lp1838
I2780
as(I28
I26
I21
I25
I0
tp1839
(lp1840
I315
aI316
aI713
aI3164
as(I24
I28
I25
I23
I0
tp1841
(lp1842
I10
aI11
aI13
aI14
aI3794
aI3816
aI3817
aI4801
as(I31
I27
I20
I22
I0
tp1843
(lp1844
I328
aI329
aI330
as(I25
I28
I17
I30
I0
tp1845
(lp1846
I393
as(I26
I19
I24
I31
I0
tp1847
(lp1848
I3069
as(I21
I29
I28
I22
I0
tp1849
(lp1850
I1246
as(I35
I25
I20
I19
I1
tp1851
(lp1852
I3992
as(I23
I22
I29
I26
I0
tp1853
(lp1854
I1308
as(I20
I32
I32
I16
I0
tp1855
(lp1856
I1941
as(I24
I28
I24
I24
I0
tp1857
(lp1858
I2416
as(I30
I23
I24
I23
I0
tp1859
(lp1860
I1633
aI1634
as(I21
I35
I25
I19
I0
tp1861
(lp1862
I683
as(I29
I28
I24
I19
I0
tp1863
(lp1864
I4143
aI4144
as(I22
I31
I23
I24
I0
tp1865
(lp1866
I460
aI461
aI2442
aI2956
aI2977
as(I17
I29
I29
I25
I0
tp1867
(lp1868
I1184
aI1185
as(I28
I26
I23
I23
I0
tp1869
(lp1870
I708
as(I26
I25
I20
I29
I0
tp1871
(lp1872
I129
aI133
aI140
aI141
as(I23
I17
I27
I32
I1
tp1873
(lp1874
I4553
aI4554
aI4555
as(I22
I25
I29
I24
I0
tp1875
(lp1876
I486
aI3856
as(I26
I24
I27
I23
I0
tp1877
(lp1878
I3622
aI3623
aI3624
aI3625
as(I23
I29
I24
I23
I1
tp1879
(lp1880
I3363
aI3364
aI3367
aI3368
as(I26
I20
I34
I20
I0
tp1881
(lp1882
I2075
as(I25
I24
I29
I22
I0
tp1883
(lp1884
I505
aI1014
as(I31
I18
I32
I19
I0
tp1885
(lp1886
I4891
aI4892
as(I25
I20
I33
I22
I0
tp1887
(lp1888
I2090
as(I19
I30
I27
I24
I0
tp1889
(lp1890
I1222
as(I34
I25
I21
I20
I0
tp1891
(lp1892
I4136
as(I25
I19
I27
I29
I0
tp1893
(lp1894
I1347
as(I30
I19
I20
I31
I0
tp1895
(lp1896
I758
as(I31
I23
I27
I19
I0
tp1897
(lp1898
I3507
as(I18
I34
I27
I21
I0
tp1899
(lp1900
I663
as(I15
I33
I29
I23
I0
tp1901
(lp1902
I1173
as(I21
I22
I28
I29
I0
tp1903
(lp1904
I4616
aI4617
as(I21
I31
I20
I28
I0
tp1905
(lp1906
I3727
as(I31
I24
I21
I24
I0
tp1907
(lp1908
I356
aI357
aI1496
aI1497
as(I27
I26
I17
I30
I0
tp1909
(lp1910
I417
as(I26
I29
I24
I21
I0
tp1911
(lp1912
I699
aI700
aI3799
aI3801
aI4808
as(I22
I24
I33
I21
I0
tp1913
(lp1914
I516
as(I28
I21
I24
I27
I0
tp1915
(lp1916
I162
aI1691
aI1693
aI1694
aI1705
as(I23
I27
I26
I23
I1
tp1917
(lp1918
I2228
as(I22
I23
I32
I23
I0
tp1919
(lp1920
I2116
as(I31
I23
I23
I23
I0
tp1921
(lp1922
I981
aI1632
aI1662
aI4356
as(I36
I24
I16
I23
I1
tp1923
(lp1924
I1566
as(I30
I20
I31
I17
I2
tp1925
(lp1926
I4070
as(I30
I20
I28
I20
I2
tp1927
(lp1928
I4086
aI4087
aI4088
as(I25
I18
I29
I27
I1
tp1929
(lp1930
I4538
as(I35
I27
I22
I16
I0
tp1931
(lp1932
I4183
aI4184
aI4187
as(I23
I30
I22
I25
I0
tp1933
(lp1934
I467
aI469
aI470
aI2982
as(I28
I18
I28
I26
I0
tp1935
(lp1936
I3569
as(I14
I34
I30
I22
I0
tp1937
(lp1938
I1167
as(I31
I21
I23
I25
I0
tp1939
(lp1940
I1643
aI1650
aI1652
aI1666
aI1669
as(I31
I19
I29
I21
I0
tp1941
(lp1942
I1463
aI1464
aI1466
aI1468
aI4374
as(I19
I34
I26
I21
I0
tp1943
(lp1944
I1136
aI1137
as(I20
I24
I24
I32
I0
tp1945
(lp1946
I2505
aI2507
aI2508
aI2509
aI2510
aI2839
as(I29
I27
I23
I21
I0
tp1947
(lp1948
I3177
aI3178
aI3194
as(I26
I29
I22
I23
I0
tp1949
(lp1950
I2591
aI3004
aI3005
as(I27
I21
I25
I27
I0
tp1951
(lp1952
I166
aI1692
aI1695
aI1696
aI1706
aI2307
as(I24
I28
I28
I19
I1
tp1953
(lp1954
I3442
aI3451
as(I16
I32
I29
I23
I0
tp1955
(lp1956
I1162
as(I15
I20
I31
I34
I0
tp1957
(lp1958
I1759
as(I24
I33
I22
I21
I0
tp1959
(lp1960
I2595
aI2596
aI2597
aI2599
as(I24
I29
I29
I18
I0
tp1961
(lp1962
I804
aI2625
as(I27
I21
I24
I28
I0
tp1963
(lp1964
I164
aI165
as(I24
I24
I21
I31
I0
tp1965
(lp1966
I2534
aI2535
aI2537
as(I31
I19
I22
I28
I0
tp1967
(lp1968
I3123
aI4284
as(I19
I26
I32
I23
I0
tp1969
(lp1970
I2135
as(I21
I18
I30
I31
I0
tp1971
(lp1972
I2696
aI2697
aI2698
as(I25
I28
I28
I19
I0
tp1973
(lp1974
I4841
aI4845
as(I23
I29
I32
I16
I0
tp1975
(lp1976
I814
as(I26
I25
I23
I25
I1
tp1977
(lp1978
I3390
as(I19
I26
I31
I24
I0
tp1979
(lp1980
I231
as(I26
I28
I27
I19
I0
tp1981
(lp1982
I4844
as(I25
I27
I24
I24
I0
tp1983
(lp1984
I2412
aI2907
as(I30
I28
I25
I16
I1
tp1985
(lp1986
I4029
as(I21
I25
I27
I27
I0
tp1987
(lp1988
I83
aI1279
aI4651
aI4656
aI4713
aI4719
aI4723
as(I26
I28
I19
I27
I0
tp1989
(lp1990
I377
aI379
aI401
as(I23
I20
I27
I30
I0
tp1991
(lp1992
I4603
aI4604
as(I26
I23
I27
I23
I1
tp1993
(lp1994
I4496
as(I27
I29
I26
I18
I0
tp1995
(lp1996
I4832
aI4833
aI4835
as(I23
I24
I30
I22
I1
tp1997
(lp1998
I4482
aI4483
as(I20
I24
I28
I28
I0
tp1999
(lp2000
I4697
aI4698
aI4699
aI4700
aI4709
aI4710
as(I33
I16
I28
I23
I0
tp2001
(lp2002
I3537
as(I26
I28
I18
I28
I0
tp2003
(lp2004
I380
aI381
aI403
as(I34
I24
I29
I13
I0
tp2005
(lp2006
I4210
as(I27
I22
I26
I25
I0
tp2007
(lp2008
I195
aI198
aI900
aI901
aI4405
as(I30
I21
I20
I29
I0
tp2009
(lp2010
I940
aI941
aI3139
as(I25
I20
I25
I30
I0
tp2011
(lp2012
I2376
aI4580
aI4597
as(I20
I21
I25
I34
I0
tp2013
(lp2014
I2729
as(I30
I25
I26
I18
I1
tp2015
(lp2016
I4021
as(I21
I32
I19
I28
I0
tp2017
(lp2018
I3739
aI3746
as(I25
I21
I29
I25
I0
tp2019
(lp2020
I600
aI4389
as(I26
I27
I25
I22
I0
tp2021
(lp2022
I293
aI2249
aI2250
aI2251
as(I34
I14
I29
I23
I0
tp2023
(lp2024
I3552
as(I16
I18
I32
I34
I0
tp2025
(lp2026
I1763
as(I18
I31
I28
I23
I0
tp2027
(lp2028
I1150
aI1151
as(I36
I26
I17
I21
I0
tp2029
(lp2030
I1510
aI1511
as(I21
I17
I27
I35
I0
tp2031
(lp2032
I2707
as(I29
I20
I25
I26
I0
tp2033
(lp2034
I1699
as(I27
I20
I22
I31
I0
tp2035
(lp2036
I741
aI742
as(I26
I17
I28
I29
I0
tp2037
(lp2038
I2355
as(I30
I23
I19
I28
I0
tp2039
(lp2040
I4302
aI4347
as(I19
I28
I26
I27
I0
tp2041
(lp2042
I58
aI2819
as(I27
I17
I28
I28
I0
tp2043
(lp2044
I2322
as(I19
I19
I27
I35
I0
tp2045
(lp2046
I2720
aI2721
as(I23
I25
I26
I26
I0
tp2047
(lp2048
I1103
aI1104
aI1106
as(I22
I27
I21
I30
I0
tp2049
(lp2050
I3716
as(I31
I24
I22
I23
I0
tp2051
(lp2052
I982
aI3201
aI3203
as(I35
I17
I26
I22
I0
tp2053
(lp2054
I3541
aI3542
aI3544
aI3545
aI3546
as(I21
I30
I30
I18
I1
tp2055
(lp2056
I1970
aI1971
aI1991
aI1992
aI1994
aI1995
aI2004
as(I23
I29
I30
I17
I1
tp2057
(lp2058
I2013
as(I22
I23
I30
I25
I0
tp2059
(lp2060
I892
aI1726
as(I27
I26
I23
I24
I0
tp2061
(lp2062
I709
aI710
aI2900
aI2909
aI4748
aI4753
aI4754
as(I19
I29
I25
I26
I1
tp2063
(lp2064
I2175
aI2177
aI2178
as(I19
I19
I26
I36
I0
tp2065
(lp2066
I2723
as(I22
I26
I31
I21
I0
tp2067
(lp2068
I2128
aI2129
as(I32
I27
I19
I22
I0
tp2069
(lp2070
I3951
aI3952
as(I24
I28
I26
I21
I1
tp2071
(lp2072
I3427
as(I25
I32
I22
I21
I0
tp2073
(lp2074
I2594
as(I32
I20
I23
I25
I0
tp2075
(lp2076
I1651
aI1653
aI1654
as(I23
I26
I24
I27
I0
tp2077
(lp2078
I121
aI1261
aI1265
aI2653
aI3344
aI3697
as(I20
I28
I24
I28
I0
tp2079
(lp2080
I2767
aI2769
as(I25
I27
I25
I22
I1
tp2081
(lp2082
I2230
aI2232
aI2233
aI3401
aI3402
aI3403
aI3404
aI3422
as(I35
I24
I18
I22
I1
tp2083
(lp2084
I1570
aI1571
as(I14
I30
I30
I26
I0
tp2085
(lp2086
I1199
aI1200
aI1201
as(I25
I23
I29
I23
I0
tp2087
(lp2088
I499
aI1040
aI1041
aI3618
as(I33
I21
I21
I25
I0
tp2089
(lp2090
I1624
aI1625
as(I24
I29
I32
I15
I0
tp2091
(lp2092
I815
aI852
as(I19
I33
I27
I21
I0
tp2093
(lp2094
I1138
aI1140
aI1141
as(I28
I26
I20
I26
I0
tp2095
(lp2096
I371
aI372
aI373
aI715
as(I28
I13
I25
I34
I0
tp2097
(lp2098
I3097
as(I19
I22
I27
I32
I0
tp2099
(lp2100
I2746
as(I33
I26
I22
I18
I1
tp2101
(lp2102
I3995
aI3996
aI3998
aI4001
aI4002
as(I24
I30
I31
I15
I0
tp2103
(lp2104
I812
as(I27
I17
I24
I32
I0
tp2105
(lp2106
I3110
as(I28
I23
I19
I30
I0
tp2107
(lp2108
I4314
as(I21
I29
I31
I19
I0
tp2109
(lp2110
I1923
as(I26
I19
I33
I22
I0
tp2111
(lp2112
I2091
aI2092
as(I28
I21
I30
I20
I1
tp2113
(lp2114
I4505
as(I18
I29
I25
I28
I0
tp2115
(lp2116
I64
aI2802
as(I29
I12
I24
I35
I0
tp2117
(lp2118
I3091
as(I28
I23
I29
I20
I0
tp2119
(lp2120
I1430
aI1433
aI1439
aI1441
aI1443
aI1868
as(I19
I30
I26
I24
I1
tp2121
(lp2122
I2171
as(I30
I22
I21
I27
I0
tp2123
(lp2124
I911
aI914
aI915
aI920
aI936
aI947
aI948
aI951
aI952
aI3136
as(I26
I22
I30
I22
I0
tp2125
(lp2126
I1370
aI2066
as(I31
I26
I21
I22
I0
tp2127
(lp2128
I3914
aI3922
as(I34
I27
I20
I19
I0
tp2129
(lp2130
I3978
aI3979
as(I25
I26
I33
I16
I0
tp2131
(lp2132
I867
as(I28
I29
I22
I21
I0
tp2133
(lp2134
I4775
aI4776
as(I22
I31
I19
I28
I0
tp2135
(lp2136
I3750
as(I21
I26
I26
I27
I0
tp2137
(lp2138
I95
aI98
aI99
aI1280
aI1281
aI1283
aI2470
aI4648
aI4652
aI4653
as(I27
I22
I27
I23
I1
tp2139
(lp2140
I4497
as(I37
I24
I26
I13
I0
tp2141
(lp2142
I4201
as(I22
I27
I29
I21
I1
tp2143
(lp2144
I4464
aI4468
aI4469
as(I35
I22
I25
I18
I0
tp2145
(lp2146
I4222
aI4223
aI4225
as(I27
I29
I25
I19
I0
tp2147
(lp2148
I273
aI1892
as(I23
I23
I24
I30
I0
tp2149
(lp2150
I2848
aI2853
aI3039
as(I19
I24
I26
I31
I0
tp2151
(lp2152
I2735
aI2738
aI2741
as(I32
I21
I21
I25
I1
tp2153
(lp2154
I1610
aI1612
aI1613
aI1614
as(I25
I24
I27
I24
I0
tp2155
(lp2156
I113
aI204
aI205
aI1077
aI1079
aI3626
aI3649
as(I24
I21
I29
I26
I0
tp2157
(lp2158
I1835
as(I32
I22
I19
I26
I1
tp2159
(lp2160
I1600
as(I24
I26
I23
I27
I0
tp2161
(lp2162
I431
aI3345
aI3347
aI3696
as(I19
I16
I29
I36
I0
tp2163
(lp2164
I2710
as(I26
I20
I26
I28
I0
tp2165
(lp2166
I171
aI172
aI1343
aI2305
as(I23
I21
I25
I31
I0
tp2167
(lp2168
I2495
as(I26
I30
I24
I20
I0
tp2169
(lp2170
I3800
aI4826
aI4827
as(I29
I21
I27
I22
I1
tp2171
(lp2172
I4093
as(I27
I30
I21
I22
I0
tp2173
(lp2174
I4783
as(I27
I23
I29
I21
I0
tp2175
(lp2176
I2056
as(I27
I27
I28
I18
I0
tp2177
(lp2178
I3488
aI3489
as(I29
I26
I23
I22
I0
tp2179
(lp2180
I3910
as(I24
I26
I22
I28
I0
tp2181
(lp2182
I3026
aI3352
aI3695
as(I28
I29
I26
I17
I0
tp2183
(lp2184
I4834
as(I28
I25
I22
I25
I0
tp2185
(lp2186
I314
aI367
aI368
as(I20
I28
I25
I26
I1
tp2187
(lp2188
I2179
aI2188
as(I24
I29
I23
I23
I1
tp2189
(lp2190
I3362
aI3369
aI3370
as(I26
I27
I17
I30
I0
tp2191
(lp2192
I390
as(I23
I32
I19
I26
I0
tp2193
(lp2194
I3753
as(I24
I28
I23
I24
I1
tp2195
(lp2196
I3360
aI3361
as(I31
I21
I22
I26
I0
tp2197
(lp2198
I1670
aI1671
aI1672
as(I28
I24
I29
I19
I0
tp2199
(lp2200
I1434
aI1435
aI1437
aI1438
aI4857
as(I20
I27
I28
I25
I0
tp2201
(lp2202
I224
aI239
as(I25
I19
I27
I28
I1
tp2203
(lp2204
I4525
as(I27
I25
I21
I27
I0
tp2205
(lp2206
I136
as(I24
I24
I27
I25
I0
tp2207
(lp2208
I112
aI206
aI209
aI210
aI211
aI896
aI1084
aI2268
aI3329
aI3331
aI3332
as(I20
I26
I30
I24
I0
tp2209
(lp2210
I1227
as(I17
I31
I28
I24
I0
tp2211
(lp2212
I1179
aI1180
as(I20
I27
I22
I31
I0
tp2213
(lp2214
I3708
aI3709
aI3710
aI3711
as(I20
I33
I27
I20
I0
tp2215
(lp2216
I660
aI670
aI673
as(I28
I27
I27
I18
I0
tp2217
(lp2218
I282
aI283
aI1886
aI1887
aI1888
as(I29
I26
I25
I20
I0
tp2219
(lp2220
I3470
aI4155
as(I27
I25
I20
I28
I0
tp2221
(lp2222
I130
aI135
aI137
aI139
aI146
aI427
as(I27
I22
I30
I21
I0
tp2223
(lp2224
I4865
as(I24
I26
I29
I20
I1
tp2225
(lp2226
I4460
aI4461
as(I30
I18
I32
I20
I0
tp2227
(lp2228
I4873
as(I23
I31
I21
I25
I0
tp2229
(lp2230
I3758
as(I29
I28
I21
I22
I0
tp2231
(lp2232
I322
aI323
aI4761
aI4762
aI4768
aI4769
as(I20
I29
I29
I22
I0
tp2233
(lp2234
I1245
as(I29
I22
I30
I19
I0
tp2235
(lp2236
I1419
aI1420
aI1421
aI1422
aI1427
as(I26
I19
I25
I30
I0
tp2237
(lp2238
I2371
aI4574
aI4575
aI4576
aI4596
as(I28
I27
I23
I22
I0
tp2239
(lp2240
I2578
aI3176
as(I26
I20
I24
I30
I0
tp2241
(lp2242
I4577
aI4579
aI4581
as(I23
I22
I26
I29
I0
tp2243
(lp2244
I1733
aI1736
as(I29
I22
I20
I29
I0
tp2245
(lp2246
I955
aI4306
aI4307
aI4345
as(I30
I19
I23
I28
I0
tp2247
(lp2248
I3122
as(I34
I28
I19
I19
I0
tp2249
(lp2250
I3977
as(I28
I28
I17
I27
I0
tp2251
(lp2252
I781
aI782
as(I26
I21
I32
I21
I0
tp2253
(lp2254
I1384
aI1385
aI2082
aI2083
aI2087
as(I29
I28
I25
I18
I0
tp2255
(lp2256
I4145
as(I26
I27
I24
I22
I1
tp2257
(lp2258
I3406
aI3407
aI3408
as(I30
I24
I28
I18
I0
tp2259
(lp2260
I3499
as(I29
I29
I21
I21
I0
tp2261
(lp2262
I4770
as(I20
I18
I30
I32
I0
tp2263
(lp2264
I2699
as(I26
I25
I21
I28
I0
tp2265
(lp2266
I134
aI142
aI143
aI147
aI148
aI428
as(I24
I15
I29
I31
I1
tp2267
(lp2268
I4547
as(I31
I28
I24
I16
I1
tp2269
(lp2270
I4008
as(I34
I24
I28
I14
I0
tp2271
(lp2272
I4211
aI4212
aI4215
as(I22
I32
I27
I19
I0
tp2273
(lp2274
I652
aI654
as(I31
I22
I24
I23
I0
tp2275
(lp2276
I997
aI1638
aI1660
aI1661
as(I27
I19
I23
I31
I0
tp2277
(lp2278
I746
as(I25
I16
I26
I32
I1
tp2279
(lp2280
I4558
as(I23
I27
I34
I16
I0
tp2281
(lp2282
I863
as(I35
I19
I25
I21
I0
tp2283
(lp2284
I3265
as(I22
I32
I26
I20
I0
tp2285
(lp2286
I653
aI690
as(I21
I33
I26
I20
I0
tp2287
(lp2288
I659
aI1134
as(I18
I28
I29
I25
I0
tp2289
(lp2290
I236
as(I24
I18
I33
I25
I0
tp2291
(lp2292
I549
as(I22
I21
I29
I28
I0
tp2293
(lp2294
I1311
aI1312
aI4620
aI4621
as(I24
I18
I26
I32
I0
tp2295
(lp2296
I2335
as(I23
I19
I31
I27
I0
tp2297
(lp2298
I1807
as(I27
I22
I28
I22
I1
tp2299
(lp2300
I2051
aI2053
as(I23
I25
I29
I23
I0
tp2301
(lp2302
I216
aI217
aI487
aI1053
aI1065
aI3323
aI3854
as(I26
I29
I25
I20
I0
tp2303
(lp2304
I3
aI272
aI2932
aI2934
aI2935
aI2937
aI2938
as(I23
I30
I25
I22
I0
tp2305
(lp2306
I1909
as(I19
I25
I27
I29
I0
tp2307
(lp2308
I73
aI78
aI2749
aI2774
aI4662
aI4663
as(I36
I22
I26
I16
I0
tp2309
(lp2310
I4220
as(I27
I24
I30
I19
I0
tp2311
(lp2312
I4858
as(I22
I24
I30
I24
I0
tp2313
(lp2314
I3839
aI3843
aI3849
aI3850
as(I23
I30
I23
I24
I0
tp2315
(lp2316
I1253
aI2431
aI2955
aI2980
aI2981
as(I28
I22
I27
I23
I0
tp2317
(lp2318
I3288
as(I19
I19
I32
I30
I0
tp2319
(lp2320
I1794
as(I23
I26
I22
I29
I0
tp2321
(lp2322
I3025
as(I32
I25
I24
I19
I0
tp2323
(lp2324
I3239
as(I34
I23
I19
I23
I1
tp2325
(lp2326
I1581
aI1591
as(I19
I34
I27
I20
I0
tp2327
(lp2328
I1139
as(I22
I22
I31
I25
I0
tp2329
(lp2330
I617
aI891
as(I23
I32
I20
I25
I0
tp2331
(lp2332
I3757
as(I26
I29
I23
I22
I0
tp2333
(lp2334
I701
aI2586
aI2950
aI4813
aI4822
as(I26
I18
I28
I27
I1
tp2335
(lp2336
I4535
aI4536
aI4537
as(I25
I23
I32
I20
I0
tp2337
(lp2338
I1387
aI4451
as(I19
I32
I27
I22
I0
tp2339
(lp2340
I1142
aI1143
as(I24
I30
I28
I18
I0
tp2341
(lp2342
I2624
as(I32
I20
I25
I23
I0
tp2343
(lp2344
I3284
as(I27
I24
I24
I25
I0
tp2345
(lp2346
I1851
aI3633
aI3655
aI3896
as(I24
I29
I30
I17
I0
tp2347
(lp2348
I807
as(I28
I23
I28
I20
I1
tp2349
(lp2350
I2040
aI2041
aI2046
aI2047
as(I25
I23
I23
I29
I0
tp2351
(lp2352
I2857
as(I27
I31
I21
I21
I0
tp2353
(lp2354
I4779
as(I28
I27
I24
I21
I0
tp2355
(lp2356
I2580
aI2581
aI2582
aI2583
aI3179
aI3180
aI4150
as(I31
I22
I28
I17
I2
tp2357
(lp2358
I4062
as(I24
I28
I21
I27
I0
tp2359
(lp2360
I3015
as(I27
I29
I23
I21
I0
tp2361
(lp2362
I4777
aI4809
aI4811
aI4812
as(I29
I28
I20
I23
I0
tp2363
(lp2364
I4763
as(I22
I30
I34
I14
I0
tp2365
(lp2366
I839
as(I25
I29
I25
I21
I0
tp2367
(lp2368
I269
aI1904
aI2930
aI2931
aI2936
aI4805
aI4806
aI4807
as(I33
I24
I22
I20
I1
tp2369
(lp2370
I4133
as(I25
I18
I26
I30
I1
tp2371
(lp2372
I4527
as(I23
I27
I20
I30
I0
tp2373
(lp2374
I3717
aI3718
aI3719
as(I30
I28
I23
I19
I0
tp2375
(lp2376
I4142
aI4167
as(I25
I24
I30
I20
I1
tp2377
(lp2378
I4488
as(I20
I19
I30
I31
I0
tp2379
(lp2380
I1787
aI1788
aI1789
aI1790
as(I25
I18
I24
I33
I0
tp2381
(lp2382
I3072
as(I34
I16
I27
I23
I0
tp2383
(lp2384
I3550
as(I26
I24
I31
I19
I0
tp2385
(lp2386
I4442
as(I28
I19
I29
I24
I0
tp2387
(lp2388
I3565
aI4378
as(I34
I25
I21
I19
I1
tp2389
(lp2390
I3993
as(I18
I34
I28
I20
I0
tp2391
(lp2392
I662
as(I20
I29
I31
I19
I1
tp2393
(lp2394
I1987
aI2000
as(I26
I24
I26
I24
I0
tp2395
(lp2396
I2397
aI2398
aI3630
aI3635
aI3638
aI3641
aI3642
aI3648
as(I27
I22
I27
I24
I0
tp2397
(lp2398
I3612
aI4383
aI4384
aI4385
aI4404
as(I25
I20
I30
I25
I0
tp2399
(lp2400
I1357
aI1358
aI4390
as(I23
I28
I29
I19
I1
tp2401
(lp2402
I2018
as(I26
I25
I26
I23
I0
tp2403
(lp2404
I2273
aI3823
as(I30
I21
I21
I28
I0
tp2405
(lp2406
I916
aI943
aI3137
aI3138
aI4274
as(I20
I18
I31
I31
I0
tp2407
(lp2408
I1784
as(I30
I24
I23
I22
I1
tp2409
(lp2410
I4121
as(I23
I31
I32
I14
I0
tp2411
(lp2412
I845
as(I22
I34
I26
I18
I0
tp2413
(lp2414
I648
as(I22
I27
I30
I20
I1
tp2415
(lp2416
I4465
aI4466
as(I23
I16
I28
I32
I1
tp2417
(lp2418
I4552
as(I34
I21
I24
I21
I0
tp2419
(lp2420
I1475
aI1479
aI1480
as(I27
I20
I33
I20
I0
tp2421
(lp2422
I2074
as(I18
I31
I29
I22
I0
tp2423
(lp2424
I1152
aI1154
aI1155
as(I37
I19
I19
I24
I1
tp2425
(lp2426
I1545
as(I26
I23
I28
I23
I0
tp2427
(lp2428
I1008
aI2060
as(I27
I20
I23
I30
I0
tp2429
(lp2430
I4578
as(I24
I24
I32
I20
I0
tp2431
(lp2432
I4445
aI4447
aI4448
aI4456
as(I31
I23
I22
I24
I0
tp2433
(lp2434
I1494
aI1663
aI1664
as(I26
I22
I23
I29
I0
tp2435
(lp2436
I3033
aI3662
aI3665
as(I27
I18
I23
I32
I0
tp2437
(lp2438
I745
as(I25
I17
I33
I25
I0
tp2439
(lp2440
I574
as(I30
I22
I20
I28
I0
tp2441
(lp2442
I723
aI725
aI726
aI939
aI944
aI957
aI4300
aI4340
as(I28
I27
I26
I18
I1
tp2443
(lp2444
I4026
as(I14
I34
I29
I23
I0
tp2445
(lp2446
I1171
as(I22
I23
I31
I24
I0
tp2447
(lp2448
I618
aI890
aI2114
aI3848
as(I23
I30
I26
I21
I0
tp2449
(lp2450
I6
aI1907
aI1908
aI3771
as(I28
I27
I22
I23
I0
tp2451
(lp2452
I3171
aI4758
aI4789
as(I30
I21
I31
I18
I0
tp2453
(lp2454
I1398
as(I30
I25
I22
I23
I0
tp2455
(lp2456
I3200
aI3924
as(I24
I28
I25
I22
I1
tp2457
(lp2458
I2231
aI2236
aI2237
aI3376
aI3377
aI3379
aI3399
aI3400
aI3424
aI3425
as(I28
I24
I23
I25
I0
tp2459
(lp2460
I312
aI313
aI2875
as(I23
I28
I26
I23
I0
tp2461
(lp2462
I1118
aI1119
as(I31
I25
I22
I22
I0
tp2463
(lp2464
I3202
aI3204
aI3916
as(I22
I27
I25
I26
I0
tp2465
(lp2466
I478
aI2465
aI2467
as(I20
I23
I26
I31
I0
tp2467
(lp2468
I2668
aI2669
aI2739
aI2740
as(I33
I17
I27
I23
I0
tp2469
(lp2470
I3535
aI3536
aI3539
as(I24
I24
I26
I26
I0
tp2471
(lp2472
I1843
aI2550
aI2551
aI3861
as(I23
I27
I23
I27
I0
tp2473
(lp2474
I1258
aI1259
aI2423
aI3350
as(I28
I20
I28
I24
I0
tp2475
(lp2476
I4379
as(I23
I26
I25
I26
I0
tp2477
(lp2478
I120
as(I25
I27
I24
I23
I1
tp2479
(lp2480
I2239
aI2240
aI3387
aI3420
as(I23
I27
I29
I21
I0
tp2481
(lp2482
I1917
aI2633
aI3310
aI3311
as(I27
I22
I23
I28
I0
tp2483
(lp2484
I3666
aI3667
aI4329
aI4330
as(I32
I21
I20
I27
I0
tp2485
(lp2486
I4289
as(I35
I20
I23
I22
I0
tp2487
(lp2488
I4238
aI4240
aI4252
as(I31
I27
I23
I18
I1
tp2489
(lp2490
I4005
aI4006
as(I27
I26
I27
I19
I1
tp2491
(lp2492
I3458
as(I25
I23
I25
I27
I0
tp2493
(lp2494
I2391
as(I21
I31
I31
I16
I1
tp2495
(lp2496
I1957
aI1958
as(I23
I27
I24
I26
I0
tp2497
(lp2498
I476
aI477
aI1112
aI1262
aI1263
aI1264
as(I18
I26
I27
I29
I0
tp2499
(lp2500
I4664
aI4667
aI4668
aI4670
aI4689
aI4690
aI4691
as(I30
I24
I19
I27
I0
tp2501
(lp2502
I718
aI719
as(I21
I25
I26
I28
I0
tp2503
(lp2504
I1278
aI4703
aI4704
aI4720
as(I33
I23
I22
I22
I0
tp2505
(lp2506
I3207
aI3208
aI3218
as(I37
I26
I16
I21
I0
tp2507
(lp2508
I1512
aI1513
as(I24
I21
I32
I23
I0
tp2509
(lp2510
I525
aI886
as(I28
I16
I28
I28
I0
tp2511
(lp2512
I2319
aI2320
aI2321
as(I38
I23
I16
I22
I1
tp2513
(lp2514
I1555
aI1556
as(I22
I19
I27
I32
I0
tp2515
(lp2516
I3062
as(I31
I21
I29
I17
I2
tp2517
(lp2518
I4064
as(I26
I21
I25
I28
I0
tp2519
(lp2520
I175
aI176
aI177
aI2383
aI2386
as(I26
I28
I21
I25
I0
tp2521
(lp2522
I2568
aI2569
aI2570
aI2572
as(I28
I28
I18
I26
I0
tp2523
(lp2524
I783
as(I34
I19
I25
I22
I0
tp2525
(lp2526
I3526
as(I28
I19
I25
I27
I1
tp2527
(lp2528
I4521
as(I22
I31
I20
I27
I0
tp2529
(lp2530
I3751
as(I21
I26
I27
I26
I0
tp2531
(lp2532
I45
aI100
aI1284
as(I31
I23
I23
I22
I1
tp2533
(lp2534
I4122
aI4124
aI4125
aI4129
as(I24
I29
I28
I19
I0
tp2535
(lp2536
I802
as(I24
I27
I34
I15
I0
tp2537
(lp2538
I860
aI861
aI864
as(I28
I18
I23
I31
I0
tp2539
(lp2540
I3115
aI3116
aI3117
as(I35
I19
I24
I22
I0
tp2541
(lp2542
I4239
as(I19
I24
I27
I30
I0
tp2543
(lp2544
I2748
aI4661
aI4675
aI4676
as(I21
I27
I26
I26
I0
tp2545
(lp2546
I47
aI2466
aI2473
as(I25
I25
I25
I24
I1
tp2547
(lp2548
I3393
aI3394
aI3395
as(I28
I22
I24
I26
I0
tp2549
(lp2550
I1690
aI1702
as(I25
I24
I24
I27
I0
tp2551
(lp2552
I2392
as(I26
I23
I23
I28
I0
tp2553
(lp2554
I2858
aI3030
aI3031
aI3032
aI3660
aI3663
aI3664
aI3668
aI3676
aI3868
as(I23
I28
I25
I23
I1
tp2555
(lp2556
I2226
aI2227
aI3366
as(I19
I25
I26
I30
I0
tp2557
(lp2558
I72
aI2672
aI2775
as(I30
I20
I25
I25
I0
tp2559
(lp2560
I3582
as(I22
I17
I27
I34
I0
tp2561
(lp2562
I2706
as(I19
I28
I30
I23
I0
tp2563
(lp2564
I233
aI1236
as(I28
I25
I23
I24
I0
tp2565
(lp2566
I310
aI311
as(I33
I20
I21
I26
I0
tp2567
(lp2568
I4259
aI4266
as(I25
I27
I33
I15
I0
tp2569
(lp2570
I856
aI865
aI866
as(I20
I27
I29
I24
I0
tp2571
(lp2572
I238
aI240
as(I25
I16
I29
I29
I1
tp2573
(lp2574
I4541
as(I22
I22
I30
I26
I0
tp2575
(lp2576
I605
as(I25
I22
I23
I30
I0
tp2577
(lp2578
I2529
aI3034
aI3035
aI3036
as(I20
I27
I23
I30
I0
tp2579
(lp2580
I2481
aI2483
aI3707
as(I20
I33
I28
I19
I0
tp2581
(lp2582
I675
as(I35
I25
I25
I15
I0
tp2583
(lp2584
I4195
as(I29
I25
I27
I17
I2
tp2585
(lp2586
I4035
as(I25
I23
I28
I24
I0
tp2587
(lp2588
I1081
aI1082
aI3627
aI3628
aI3827
aI3828
as(I23
I29
I27
I21
I0
tp2589
(lp2590
I632
aI633
aI800
aI1912
as(I34
I22
I21
I22
I1
tp2591
(lp2592
I1574
as(I29
I21
I31
I19
I0
tp2593
(lp2594
I1399
as(I34
I19
I23
I24
I0
tp2595
(lp2596
I4254
as(I25
I23
I22
I30
I0
tp2597
(lp2598
I2526
aI2531
aI3874
as(I32
I24
I24
I20
I0
tp2599
(lp2600
I3238
as(I15
I18
I32
I35
I0
tp2601
(lp2602
I1762
as(I25
I28
I23
I24
I0
tp2603
(lp2604
I439
aI793
aI2417
aI3007
as(I26
I19
I26
I29
I0
tp2605
(lp2606
I1336
aI1337
aI2315
aI2368
aI2369
as(I24
I23
I27
I26
I0
tp2607
(lp2608
I1712
aI1713
aI1842
as(I27
I22
I26
I24
I1
tp2609
(lp2610
I4098
as(I23
I22
I27
I28
I0
tp2611
(lp2612
I1730
aI1731
aI1732
as(I31
I24
I23
I22
I0
tp2613
(lp2614
I985
as(I29
I22
I21
I28
I0
tp2615
(lp2616
I912
aI913
aI953
aI3135
aI4351
as(I25
I29
I24
I22
I0
tp2617
(lp2618
I2947
aI3798
as(I34
I25
I29
I12
I0
tp2619
(lp2620
I4209
as(I25
I18
I27
I29
I1
tp2621
(lp2622
I4532
aI4533
as(I26
I21
I33
I20
I0
tp2623
(lp2624
I877
aI878
aI880
aI2080
aI2085
as(I33
I25
I19
I23
I0
tp2625
(lp2626
I342
aI3935
aI3954
as(I24
I27
I28
I21
I0
tp2627
(lp2628
I626
aI627
as(I29
I23
I30
I18
I0
tp2629
(lp2630
I1425
as(I20
I25
I25
I30
I0
tp2631
(lp2632
I88
aI2673
aI2764
as(I26
I31
I21
I22
I0
tp2633
(lp2634
I2994
aI4781
aI4782
as(I27
I14
I25
I34
I0
tp2635
(lp2636
I3086
as(I29
I30
I21
I20
I0
tp2637
(lp2638
I4773
as(I16
I20
I31
I33
I0
tp2639
(lp2640
I1757
aI1758
as(I31
I28
I22
I19
I0
tp2641
(lp2642
I4168
as(I29
I25
I19
I27
I0
tp2643
(lp2644
I717
as(I26
I22
I25
I27
I0
tp2645
(lp2646
I2387
aI2862
aI2863
aI2864
as(I31
I27
I19
I23
I0
tp2647
(lp2648
I331
as(I23
I29
I29
I18
I1
tp2649
(lp2650
I2012
aI2016
as(I26
I32
I25
I17
I0
tp2651
(lp2652
I2609
as(I26
I31
I25
I18
I0
tp2653
(lp2654
I641
aI2607
aI2616
as(I26
I23
I25
I25
I1
tp2655
(lp2656
I4102
as(I21
I26
I28
I25
I0
tp2657
(lp2658
I223
aI482
as(I34
I21
I22
I23
I0
tp2659
(lp2660
I1488
aI1628
as(I21
I31
I24
I23
I1
tp2661
(lp2662
I2219
aI2220
as(I28
I18
I28
I25
I1
tp2663
(lp2664
I4518
as(I25
I19
I25
I31
I0
tp2665
(lp2666
I2372
aI2373
aI2375
aI3065
aI4572
aI4573
as(I19
I28
I29
I23
I1
tp2667
(lp2668
I2150
aI2151
aI2164
aI2165
as(I22
I25
I32
I21
I0
tp2669
(lp2670
I515
as(I25
I24
I22
I29
I0
tp2671
(lp2672
I3871
aI3872
aI3873
aI3875
aI3877
as(I26
I26
I27
I21
I0
tp2673
(lp2674
I2924
aI2925
aI3303
aI3479
as(I26
I22
I34
I18
I0
tp2675
(lp2676
I874
aI875
as(I24
I16
I28
I31
I1
tp2677
(lp2678
I4544
as(I18
I24
I27
I31
I0
tp2679
(lp2680
I4672
as(I28
I22
I22
I27
I1
tp2681
(lp2682
I4107
as(I27
I18
I33
I22
I0
tp2683
(lp2684
I2095
as(I23
I26
I29
I22
I0
tp2685
(lp2686
I31
aI491
aI2634
as(I29
I21
I29
I20
I1
tp2687
(lp2688
I4503
as(I26
I22
I22
I30
I0
tp2689
(lp2690
I2528
aI2530
aI4320
as(I27
I24
I31
I18
I0
tp2691
(lp2692
I1392
as(I21
I21
I27
I31
I0
tp2693
(lp2694
I4607
aI4608
aI4609
as(I16
I22
I31
I31
I0
tp2695
(lp2696
I1753
as(I38
I21
I17
I23
I1
tp2697
(lp2698
I1552
as(I19
I31
I35
I15
I0
tp2699
(lp2700
I1949
as(I31
I21
I21
I27
I0
tp2701
(lp2702
I946
aI1673
aI1675
aI4282
as(I28
I24
I28
I20
I0
tp2703
(lp2704
I1864
aI1869
as(I17
I25
I29
I29
I0
tp2705
(lp2706
I4684
aI4687
as(I24
I19
I25
I32
I0
tp2707
(lp2708
I3064
as(I20
I26
I25
I29
I0
tp2709
(lp2710
I2759
aI2762
aI2765
aI2772
as(I23
I32
I21
I24
I0
tp2711
(lp2712
I3759
as(I28
I24
I22
I26
I0
tp2713
(lp2714
I369
aI1684
aI1685
as(I27
I25
I30
I18
I0
tp2715
(lp2716
I4851
aI4852
as(I29
I23
I24
I24
I0
tp2717
(lp2718
I2877
aI2878
as(I21
I29
I31
I18
I1
tp2719
(lp2720
I1988
as(I27
I24
I25
I24
I0
tp2721
(lp2722
I308
aI3631
aI3632
as(I26
I22
I27
I25
I0
tp2723
(lp2724
I197
aI596
aI597
as(I22
I25
I31
I22
I0
tp2725
(lp2726
I1055
aI1057
aI1058
aI1059
aI1060
as(I29
I28
I25
I17
I1
tp2727
(lp2728
I4028
as(I23
I27
I28
I22
I0
tp2729
(lp2730
I251
aI625
aI630
aI1916
aI3320
aI3321
as(I30
I22
I21
I26
I1
tp2731
(lp2732
I1603
as(I35
I23
I27
I15
I0
tp2733
(lp2734
I4217
as(I24
I23
I25
I28
I0
tp2735
(lp2736
I2543
aI3864
as(I24
I16
I29
I30
I1
tp2737
(lp2738
I4542
aI4543
aI4545
as(I21
I30
I24
I25
I0
tp2739
(lp2740
I2446
aI2449
aI2969
aI3786
as(I28
I23
I26
I23
I0
tp2741
(lp2742
I2882
aI2883
aI3289
aI4412
as(I18
I26
I26
I30
I0
tp2743
(lp2744
I2777
as(I24
I23
I24
I29
I0
tp2745
(lp2746
I2542
aI2854
aI2855
as(I21
I30
I22
I27
I0
tp2747
(lp2748
I2428
as(I24
I26
I27
I22
I1
tp2749
(lp2750
I2025
aI2026
as(I30
I27
I20
I23
I0
tp2751
(lp2752
I327
as(I22
I30
I24
I23
I1
tp2753
(lp2754
I2216
aI2224
as(I20
I19
I31
I30
I0
tp2755
(lp2756
I1783
aI1785
aI1791
aI1792
as(I29
I24
I28
I19
I0
tp2757
(lp2758
I4430
as(I22
I30
I24
I24
I0
tp2759
(lp2760
I3787
as(I20
I30
I35
I15
I0
tp2761
(lp2762
I829
as(I35
I27
I18
I20
I0
tp2763
(lp2764
I3958
aI3959
as(I18
I28
I23
I31
I0
tp2765
(lp2766
I2797
aI2798
as(I31
I19
I30
I18
I2
tp2767
(lp2768
I4072
as(I21
I26
I22
I31
I0
tp2769
(lp2770
I3712
as(I27
I22
I24
I27
I0
tp2771
(lp2772
I161
aI163
aI1704
as(I28
I23
I24
I25
I0
tp2773
(lp2774
I306
aI2876
as(I29
I19
I27
I25
I0
tp2775
(lp2776
I3572
as(I22
I26
I28
I23
I1
tp2777
(lp2778
I4474
aI4477
as(I24
I33
I24
I19
I0
tp2779
(lp2780
I2601
as(I19
I30
I33
I18
I0
tp2781
(lp2782
I1927
aI1928
aI1929
as(I20
I30
I24
I25
I1
tp2783
(lp2784
I2193
as(I35
I23
I17
I24
I1
tp2785
(lp2786
I1525
aI1531
aI1532
as(I27
I28
I20
I25
I0
tp2787
(lp2788
I785
aI786
as(I26
I27
I27
I20
I0
tp2789
(lp2790
I1873
as(I22
I24
I31
I23
I0
tp2791
(lp2792
I2115
as(I19
I27
I25
I29
I0
tp2793
(lp2794
I60
aI61
aI68
aI2822
aI2823
aI3705
as(I23
I24
I23
I30
I0
tp2795
(lp2796
I2847
as(I34
I21
I25
I20
I0
tp2797
(lp2798
I1476
aI1478
aI3258
as(I30
I20
I28
I22
I0
tp2799
(lp2800
I4369
aI4370
aI4371
as(I27
I31
I20
I22
I0
tp2801
(lp2802
I4780
as(I26
I26
I26
I22
I0
tp2803
(lp2804
I3297
aI3299
aI3300
as(I19
I21
I25
I35
I0
tp2805
(lp2806
I2728
as(I26
I23
I29
I22
I0
tp2807
(lp2808
I1009
aI2058
aI2061
aI2062
as(I20
I30
I26
I23
I1
tp2809
(lp2810
I2170
as(I24
I20
I31
I25
I0
tp2811
(lp2812
I551
aI1356
as(I21
I33
I23
I23
I0
tp2813
(lp2814
I2959
aI2960
aI2963
aI2964
as(I38
I19
I19
I23
I1
tp2815
(lp2816
I1542
aI1543
aI1544
as(I30
I20
I24
I26
I0
tp2817
(lp2818
I972
aI3584
as(I34
I27
I19
I20
I0
tp2819
(lp2820
I3976
as(I23
I32
I26
I19
I0
tp2821
(lp2822
I651
as(I22
I26
I29
I23
I0
tp2823
(lp2824
I484
aI485
aI1064
as(I30
I25
I23
I22
I0
tp2825
(lp2826
I3197
as(I24
I28
I24
I23
I1
tp2827
(lp2828
I2238
as(I30
I24
I23
I23
I0
tp2829
(lp2830
I3199
as(I34
I23
I25
I18
I0
tp2831
(lp2832
I3254
as(I23
I28
I27
I22
I0
tp2833
(lp2834
I631
aI798
aI799
aI1913
aI1914
as(I25
I32
I20
I23
I0
tp2835
(lp2836
I2992
as(I30
I19
I30
I21
I0
tp2837
(lp2838
I1465
aI4375
aI4870
aI4871
as(I22
I27
I26
I25
I0
tp2839
(lp2840
I43
aI2468
as(I29
I26
I26
I19
I0
tp2841
(lp2842
I3460
aI3462
aI3463
aI3466
aI3469
as(I20
I23
I27
I30
I0
tp2843
(lp2844
I4677
as(I20
I16
I29
I35
I0
tp2845
(lp2846
I2709
as(I22
I26
I28
I24
I0
tp2847
(lp2848
I37
aI38
aI483
aI623
as(I32
I20
I21
I27
I0
tp2849
(lp2850
I4260
aI4261
aI4262
aI4265
aI4281
aI4288
as(I34
I25
I22
I18
I1
tp2851
(lp2852
I4000
as(I23
I32
I22
I23
I0
tp2853
(lp2854
I3760
aI3761
as(I26
I16
I32
I26
I0
tp2855
(lp2856
I577
aI578
aI579
aI580
aI581
as(I29
I18
I28
I25
I0
tp2857
(lp2858
I3570
aI3571
as(I21
I24
I23
I32
I0
tp2859
(lp2860
I2515
as(I33
I21
I25
I21
I0
tp2861
(lp2862
I1473
aI3261
aI3262
aI3282
aI3512
aI3513
aI3515
aI3516
as(I23
I29
I26
I22
I0
tp2863
(lp2864
I7
as(I25
I32
I24
I19
I0
tp2865
(lp2866
I2602
as(I28
I27
I20
I25
I0
tp2867
(lp2868
I714
as(I28
I26
I29
I17
I0
tp2869
(lp2870
I3491
as(I21
I24
I26
I29
I0
tp2871
(lp2872
I2659
aI4705
aI4707
aI4726
as(I28
I26
I22
I24
I0
tp2873
(lp2874
I3168
as(I22
I30
I33
I15
I0
tp2875
(lp2876
I818
aI850
as(I16
I30
I29
I25
I0
tp2877
(lp2878
I1186
aI1187
aI1191
as(I25
I16
I32
I27
I0
tp2879
(lp2880
I583
as(I25
I29
I22
I24
I0
tp2881
(lp2882
I2998
aI2999
as(I26
I18
I27
I29
I0
tp2883
(lp2884
I2329
aI2353
aI2354
as(I21
I21
I29
I29
I0
tp2885
(lp2886
I4615
as(I22
I30
I32
I16
I0
tp2887
(lp2888
I849
as(I25
I29
I27
I19
I0
tp2889
(lp2890
I4842
as(I19
I31
I36
I14
I0
tp2891
(lp2892
I1950
as(I20
I31
I24
I24
I1
tp2893
(lp2894
I2194
aI2195
aI2196
aI2197
as(I21
I27
I27
I24
I1
tp2895
(lp2896
I2182
as(I17
I32
I29
I22
I0
tp2897
(lp2898
I1156
aI1163
aI1164
as(I22
I25
I25
I28
I0
tp2899
(lp2900
I1277
aI4641
aI4642
aI4643
aI4645
as(I34
I19
I26
I21
I0
tp2901
(lp2902
I3264
aI3524
as(I29
I13
I24
I34
I0
tp2903
(lp2904
I3098
as(I23
I25
I29
I22
I1
tp2905
(lp2906
I2022
aI4479
as(I23
I23
I27
I27
I0
tp2907
(lp2908
I2545
aI4624
as(I29
I20
I22
I29
I0
tp2909
(lp2910
I736
aI737
aI3129
aI3149
as(I31
I27
I23
I19
I0
tp2911
(lp2912
I4165
aI4166
as(I26
I27
I22
I25
I0
tp2913
(lp2914
I2567
aI2573
as(I23
I23
I26
I28
I0
tp2915
(lp2916
I2546
as(I28
I22
I27
I22
I1
tp2917
(lp2918
I4498
aI4499
aI4500
as(I25
I24
I31
I20
I0
tp2919
(lp2920
I4440
aI4441
aI4449
aI4455
as(I24
I19
I26
I31
I0
tp2921
(lp2922
I2374
as(I20
I26
I32
I22
I0
tp2923
(lp2924
I2136
as(I25
I24
I25
I26
I0
tp2925
(lp2926
I2394
aI2552
aI3341
aI3644
aI3645
aI3685
aI4741
as(I24
I21
I31
I24
I0
tp2927
(lp2928
I529
aI531
aI887
as(I28
I22
I31
I19
I0
tp2929
(lp2930
I1428
as(I15
I31
I29
I25
I0
tp2931
(lp2932
I1205
aI1206
as(I26
I20
I28
I26
I0
tp2933
(lp2934
I593
as(I31
I20
I30
I19
I0
tp2935
(lp2936
I1403
aI1404
as(I21
I28
I35
I16
I0
tp2937
(lp2938
I826
as(I31
I25
I25
I19
I0
tp2939
(lp2940
I4160
as(I30
I23
I23
I23
I1
tp2941
(lp2942
I4119
as(I20
I29
I36
I15
I0
tp2943
(lp2944
I831
aI832
as(I16
I32
I28
I24
I0
tp2945
(lp2946
I1210
aI1211
aI1212
aI1213
aI1214
aI1215
as(I28
I25
I24
I23
I0
tp2947
(lp2948
I2913
aI2914
aI2919
as(I33
I22
I22
I23
I0
tp2949
(lp2950
I3212
aI3216
aI3220
aI3232
as(I33
I21
I21
I24
I1
tp2951
(lp2952
I1611
as(I22
I28
I20
I30
I0
tp2953
(lp2954
I3020
aI3715
as(I18
I21
I31
I30
I0
tp2955
(lp2956
I1750
as(I31
I25
I21
I23
I0
tp2957
(lp2958
I3915
aI3925
as(I25
I25
I26
I24
I0
tp2959
(lp2960
I114
aI1072
aI1073
aI1074
aI1075
aI1076
aI2292
aI3650
as(I27
I25
I19
I29
I0
tp2961
(lp2962
I420
aI421
aI422
aI424
as(I25
I26
I29
I20
I0
tp2963
(lp2964
I3483
as(I24
I24
I25
I27
I0
tp2965
(lp2966
I1268
aI1269
aI1271
aI1272
aI1273
aI2548
aI3862
aI4740
as(I22
I19
I32
I27
I0
tp2967
(lp2968
I540
aI542
aI545
aI1806
aI1813
as(I20
I26
I24
I30
I0
tp2969
(lp2970
I2674
aI2763
aI2828
as(I20
I33
I29
I18
I0
tp2971
(lp2972
I676
as(I32
I25
I19
I24
I0
tp2973
(lp2974
I345
aI346
as(I29
I27
I27
I17
I0
tp2975
(lp2976
I3493
aI3494
as(I24
I25
I27
I24
I0
tp2977
(lp2978
I1087
aI1088
aI1101
aI2269
as(I26
I19
I27
I28
I0
tp2979
(lp2980
I1335
aI1344
aI2366
aI2367
as(I19
I29
I28
I24
I0
tp2981
(lp2982
I1223
as(I23
I22
I24
I31
I0
tp2983
(lp2984
I2852
as(I26
I25
I26
I22
I1
tp2985
(lp2986
I2028
as(I34
I20
I21
I25
I0
tp2987
(lp2988
I4258
as(I21
I26
I27
I25
I1
tp2989
(lp2990
I2183
as(I30
I24
I21
I25
I0
tp2991
(lp2992
I3158
aI3162
as(I20
I29
I35
I16
I0
tp2993
(lp2994
I830
aI833
as(I20
I25
I26
I29
I0
tp2995
(lp2996
I79
aI85
aI86
aI89
as(I38
I18
I22
I22
I0
tp2997
(lp2998
I4243
aI4245
as(I21
I28
I20
I31
I0
tp2999
(lp3000
I3722
as(I29
I19
I21
I31
I0
tp3001
(lp3002
I3143
as(I22
I21
I30
I27
I0
tp3003
(lp3004
I536
aI1321
aI1819
as(I20
I21
I28
I31
I0
tp3005
(lp3006
I2692
as(I30
I21
I28
I21
I0
tp3007
(lp3008
I1454
aI1455
as(I21
I21
I28
I30
I0
tp3009
(lp3010
I4610
aI4614
as(I27
I20
I34
I19
I0
tp3011
(lp3012
I2076
aI2077
aI2078
as(I35
I24
I24
I17
I0
tp3013
(lp3014
I3250
aI3252
as(I25
I21
I30
I24
I0
tp3015
(lp3016
I1029
aI1359
aI4391
as(I34
I24
I25
I17
I0
tp3017
(lp3018
I3253
as(I21
I27
I25
I27
I0
tp3019
(lp3020
I96
aI2474
aI2475
as(I19
I27
I24
I30
I0
tp3021
(lp3022
I2786
aI3706
as(I23
I17
I33
I27
I0
tp3023
(lp3024
I1809
as(I34
I25
I18
I23
I0
tp3025
(lp3026
I3943
aI3944
as(I27
I20
I30
I23
I0
tp3027
(lp3028
I4395
as(I35
I20
I25
I20
I0
tp3029
(lp3030
I4231
aI4234
as(I23
I28
I26
I22
I1
tp3031
(lp3032
I3426
as(I27
I26
I28
I19
I0
tp3033
(lp3034
I3486
aI3487
aI4847
as(I23
I30
I27
I19
I1
tp3035
(lp3036
I3431
as(I22
I29
I27
I22
I0
tp3037
(lp3038
I3778
aI3779
as(I19
I25
I25
I31
I0
tp3039
(lp3040
I2677
aI2678
aI2679
aI2736
aI2831
aI2832
as(I28
I27
I26
I19
I0
tp3041
(lp3042
I285
aI1875
aI1876
aI1877
as(I33
I14
I30
I23
I0
tp3043
(lp3044
I3553
aI3554
as(I29
I21
I28
I21
I1
tp3045
(lp3046
I4090
aI4092
as(I24
I20
I30
I26
I0
tp3047
(lp3048
I1354
aI1355
as(I32
I26
I19
I23
I0
tp3049
(lp3050
I340
aI341
aI3946
as(I23
I27
I29
I20
I1
tp3051
(lp3052
I4462
as(I28
I15
I23
I34
I0
tp3053
(lp3054
I3103
as(I23
I26
I20
I31
I0
tp3055
(lp3056
I3720
as(I32
I24
I22
I21
I1
tp3057
(lp3058
I4131
aI4132
as(I22
I22
I29
I27
I0
tp3059
(lp3060
I1310
aI4622
as(I34
I23
I29
I14
I0
tp3061
(lp3062
I4213
aI4214
as(I24
I30
I21
I25
I0
tp3063
(lp3064
I2985
aI2987
aI2988
as(I29
I19
I24
I28
I0
tp3065
(lp3066
I3120
aI3121
as(I26
I18
I34
I22
I0
tp3067
(lp3068
I2093
aI2094
as(I21
I29
I30
I19
I1
tp3069
(lp3070
I1990
aI2001
aI2002
aI2003
as(I22
I26
I27
I25
I0
tp3071
(lp3072
I42
aI101
aI481
as(I37
I22
I17
I23
I1
tp3073
(lp3074
I1553
aI1564
as(I29
I21
I30
I20
I0
tp3075
(lp3076
I1406
aI1415
aI1449
as(I24
I24
I30
I21
I1
tp3077
(lp3078
I4484
aI4485
aI4487
as(I37
I23
I29
I11
I0
tp3079
(lp3080
I4205
aI4206
as(I32
I19
I28
I21
I0
tp3081
(lp3082
I1461
aI3270
aI3271
as(I35
I27
I19
I19
I0
tp3083
(lp3084
I3980
as(I21
I30
I25
I24
I0
tp3085
(lp3086
I1124
aI1249
aI3783
as(I37
I23
I28
I12
I0
tp3087
(lp3088
I4203
aI4204
as(I19
I26
I26
I29
I0
tp3089
(lp3090
I69
aI2750
aI2754
aI2773
aI2776
as(I28
I23
I27
I22
I0
tp3091
(lp3092
I1005
aI1006
aI4413
as(I21
I29
I23
I27
I0
tp3093
(lp3094
I2451
as(I28
I27
I28
I17
I0
tp3095
(lp3096
I3490
aI3492
as(I20
I28
I30
I22
I0
tp3097
(lp3098
I2139
aI2140
as(I21
I30
I23
I26
I0
tp3099
(lp3100
I455
aI456
aI2450
as(I32
I23
I27
I16
I2
tp3101
(lp3102
I4054
aI4055
aI4056
as(I26
I18
I26
I30
I0
tp3103
(lp3104
I2352
aI4592
aI4593
as(I22
I30
I31
I16
I1
tp3105
(lp3106
I1956
as(I26
I20
I33
I21
I0
tp3107
(lp3108
I2097
as(I24
I28
I22
I26
I0
tp3109
(lp3110
I3010
aI3011
aI3357
as(I29
I23
I28
I20
I0
tp3111
(lp3112
I1444
aI4416
as(I25
I17
I27
I31
I0
tp3113
(lp3114
I2331
aI2340
aI2341
aI2357
aI4560
as(I25
I24
I32
I19
I0
tp3115
(lp3116
I4443
as(I19
I20
I31
I30
I0
tp3117
(lp3118
I1776
aI1793
aI1795
as(I28
I23
I25
I24
I0
tp3119
(lp3120
I2879
aI2880
aI2881
as(I17
I29
I25
I29
I0
tp3121
(lp3122
I2801
aI2803
as(I25
I20
I28
I27
I0
tp3123
(lp3124
I1350
aI2301
as(I31
I25
I26
I17
I1
tp3125
(lp3126
I4019
aI4020
as(I31
I26
I25
I18
I0
tp3127
(lp3128
I3242
as(I27
I28
I21
I24
I0
tp3129
(lp3130
I787
aI788
aI790
as(I26
I27
I28
I19
I0
tp3131
(lp3132
I4846
as(I27
I23
I28
I21
I1
tp3133
(lp3134
I2054
as(I23
I20
I32
I25
I0
tp3135
(lp3136
I614
as(I19
I28
I30
I22
I1
tp3137
(lp3138
I2149
as(I26
I21
I30
I23
I0
tp3139
(lp3140
I4392
aI4393
aI4394
aI4396
as(I35
I26
I24
I15
I0
tp3141
(lp3142
I4194
as(I19
I21
I30
I30
I0
tp3143
(lp3144
I1749
aI1777
as(I26
I22
I33
I19
I0
tp3145
(lp3146
I876
as(I23
I29
I28
I20
I0
tp3147
(lp3148
I2629
as(I24
I26
I25
I25
I0
tp3149
(lp3150
I118
aI3337
aI3890
aI3891
as(I26
I26
I23
I25
I0
tp3151
(lp3152
I437
as(I35
I27
I23
I15
I0
tp3153
(lp3154
I4186
as(I26
I23
I30
I21
I0
tp3155
(lp3156
I4437
aI4438
as(I24
I20
I26
I29
I1
tp3157
(lp3158
I4529
as(I18
I25
I26
I31
I0
tp3159
(lp3160
I2737
as(I24
I28
I33
I15
I0
tp3161
(lp3162
I857
as(I22
I29
I22
I27
I0
tp3163
(lp3164
I2427
as(I35
I23
I25
I17
I0
tp3165
(lp3166
I3251
as(I31
I21
I25
I23
I0
tp3167
(lp3168
I3285
as(I27
I23
I21
I29
I0
tp3169
(lp3170
I158
as(I32
I25
I20
I23
I0
tp3171
(lp3172
I334
aI335
aI336
aI3926
aI3928
as(I27
I21
I31
I21
I0
tp3173
(lp3174
I2072
as(I22
I29
I24
I25
I0
tp3175
(lp3176
I2457
aI2458
aI2459
aI2460
as(I16
I32
I27
I25
I0
tp3177
(lp3178
I1216
as(I27
I23
I30
I20
I0
tp3179
(lp3180
I4859
as(I24
I26
I27
I23
I0
tp3181
(lp3182
I259
aI1019
aI1089
aI1090
aI1091
aI1099
as(I30
I21
I26
I23
I0
tp3183
(lp3184
I3286
as(I25
I22
I24
I29
I0
tp3185
(lp3186
I180
as(I34
I26
I21
I18
I1
tp3187
(lp3188
I3999
as(I22
I33
I24
I21
I0
tp3189
(lp3190
I1131
as(I27
I25
I29
I19
I0
tp3191
(lp3192
I4853
aI4854
aI4856
as(I26
I19
I26
I28
I1
tp3193
(lp3194
I4523
as(I22
I27
I27
I24
I0
tp3195
(lp3196
I39
aI41
as(I27
I25
I18
I30
I0
tp3197
(lp3198
I419
as(I25
I33
I25
I17
I0
tp3199
(lp3200
I644
as(I20
I26
I27
I27
I0
tp3201
(lp3202
I2757
aI4650
aI4695
as(I24
I25
I28
I23
I0
tp3203
(lp3204
I488
aI489
aI1018
aI1020
aI1021
aI1022
aI1045
aI1046
aI1066
aI1067
aI1070
aI1097
aI1098
aI2271
aI3327
aI3830
as(I23
I32
I23
I22
I0
tp3205
(lp3206
I3762
as(I23
I33
I26
I18
I0
tp3207
(lp3208
I649
aI650
as(I29
I26
I17
I28
I0
tp3209
(lp3210
I773
as(I27
I25
I28
I20
I0
tp3211
(lp3212
I1863
aI1866
aI1870
aI3477
aI3485
aI4432
as(I25
I25
I28
I22
I0
tp3213
(lp3214
I28
aI3305
aI3306
aI3326
as(I29
I22
I24
I25
I0
tp3215
(lp3216
I1701
as(I16
I30
I30
I24
I0
tp3217
(lp3218
I1192
aI1193
aI1194
as(I25
I32
I25
I18
I0
tp3219
(lp3220
I642
aI2606
as(I28
I27
I21
I24
I0
tp3221
(lp3222
I317
aI320
as(I29
I27
I26
I18
I0
tp3223
(lp3224
I1885
as(I21
I24
I27
I28
I0
tp3225
(lp3226
I1288
aI4657
aI4701
aI4702
aI4706
aI4708
aI4714
aI4717
aI4724
aI4727
as(I29
I22
I22
I27
I0
tp3227
(lp3228
I909
aI910
aI935
aI1679
aI1680
aI3133
aI3134
aI4352
as(I30
I29
I21
I20
I0
tp3229
(lp3230
I4771
as(I37
I23
I17
I22
I1
tp3231
(lp3232
I1520
aI1521
aI1554
as(I24
I22
I23
I31
I0
tp3233
(lp3234
I2540
as(I28
I28
I25
I19
I0
tp3235
(lp3236
I4146
as(I21
I30
I26
I23
I0
tp3237
(lp3238
I1248
as(I17
I24
I29
I30
I0
tp3239
(lp3240
I4683
as(I30
I24
I20
I26
I0
tp3241
(lp3242
I349
aI350
as(I25
I22
I30
I23
I0
tp3243
(lp3244
I1360
aI1366
aI1371
aI3617
as(I33
I23
I20
I24
I0
tp3245
(lp3246
I3227
as(I21
I28
I29
I22
I0
tp3247
(lp3248
I3317
as(I20
I24
I27
I29
I0
tp3249
(lp3250
I80
aI81
aI4658
aI4660
as(I21
I27
I23
I29
I0
tp3251
(lp3252
I2479
aI2482
aI3701
aI3702
aI3703
as(I27
I19
I25
I29
I0
tp3253
(lp3254
I1340
aI1341
aI2313
aI2370
as(I22
I31
I22
I25
I0
tp3255
(lp3256
I458
as(I22
I32
I19
I27
I0
tp3257
(lp3258
I3738
aI3747
aI3748
aI3749
aI3752
aI3754
as(I22
I25
I28
I25
I0
tp3259
(lp3260
I102
aI103
aI222
as(I29
I24
I19
I28
I0
tp3261
(lp3262
I720
aI721
as(I29
I20
I23
I28
I0
tp3263
(lp3264
I966
aI3127
as(I21
I21
I31
I27
I0
tp3265
(lp3266
I1818
as(I26
I27
I23
I24
I0
tp3267
(lp3268
I438
aI703
aI2574
aI2575
aI2645
aI2647
aI2908
aI4792
as(I35
I23
I19
I22
I1
tp3269
(lp3270
I1572
as(I30
I20
I30
I20
I0
tp3271
(lp3272
I1402
aI1405
aI1414
as(I28
I22
I26
I23
I1
tp3273
(lp3274
I4097
as(I33
I24
I20
I23
I0
tp3275
(lp3276
I3228
aI3933
aI3934
as(I18
I28
I30
I24
I0
tp3277
(lp3278
I235
aI1231
as(I35
I19
I23
I23
I0
tp3279
(lp3280
I4253
as(I28
I22
I26
I24
I0
tp3281
(lp3282
I4411
as(I33
I28
I22
I17
I0
tp3283
(lp3284
I4176
as(I19
I29
I31
I20
I1
tp3285
(lp3286
I1983
aI1984
aI1985
aI1986
as(I27
I26
I22
I25
I0
tp3287
(lp3288
I711
aI2561
aI2562
aI3165
aI3166
aI3167
aI4756
as(I18
I30
I30
I22
I0
tp3289
(lp3290
I1153
as(I31
I20
I24
I25
I0
tp3291
(lp3292
I1655
aI1656
aI3581
aI3583
as(I24
I23
I22
I31
I0
tp3293
(lp3294
I2532
aI2533
aI2538
aI2539
as(I28
I22
I29
I21
I0
tp3295
(lp3296
I1440
aI4864
aI4866
as(I36
I24
I25
I15
I0
tp3297
(lp3298
I4196
aI4197
as(I30
I24
I17
I29
I0
tp3299
(lp3300
I769
aI770
aI771
as(I37
I24
I17
I22
I0
tp3301
(lp3302
I1518
as(I28
I25
I25
I22
I0
tp3303
(lp3304
I2920
aI3902
aI3904
aI3906
aI3907
aI3908
as(I27
I26
I24
I23
I0
tp3305
(lp3306
I2899
aI2910
as(I17
I31
I29
I23
I0
tp3307
(lp3308
I1178
as(I35
I26
I23
I16
I0
tp3309
(lp3310
I4180
aI4191
as(I23
I31
I24
I22
I0
tp3311
(lp3312
I3763
aI3764
as(I24
I27
I28
I20
I1
tp3313
(lp3314
I3448
aI3449
as(I21
I30
I24
I24
I1
tp3315
(lp3316
I2203
aI2205
aI2208
aI2217
aI2218
as(I20
I30
I31
I19
I0
tp3317
(lp3318
I1925
as(I28
I23
I26
I22
I1
tp3319
(lp3320
I4096
as(I34
I23
I20
I22
I1
tp3321
(lp3322
I1573
as(I23
I28
I21
I28
I0
tp3323
(lp3324
I3018
as(I28
I21
I20
I31
I0
tp3325
(lp3326
I754
aI755
as(I30
I21
I30
I17
I2
tp3327
(lp3328
I4079
as(I23
I29
I25
I23
I0
tp3329
(lp3330
I3793
as(I22
I26
I26
I26
I0
tp3331
(lp3332
I44
aI479
aI2469
aI2471
aI2472
as(I32
I23
I24
I21
I0
tp3333
(lp3334
I994
aI3235
aI3237
as(I33
I21
I22
I24
I0
tp3335
(lp3336
I1490
aI1491
as(I21
I19
I33
I27
I0
tp3337
(lp3338
I543
as(I25
I28
I21
I26
I0
tp3339
(lp3340
I2571
as(I23
I24
I32
I21
I0
tp3341
(lp3342
I494
aI517
aI518
aI519
aI520
aI2120
aI2121
aI2122
aI2123
aI2124
aI2125
as(I23
I22
I25
I30
I0
tp3343
(lp3344
I2849
aI2850
aI2851
as(I25
I24
I27
I23
I1
tp3345
(lp3346
I4495
as(I25
I29
I26
I20
I0
tp3347
(lp3348
I4
aI270
aI271
aI635
aI636
aI1903
as(I25
I30
I25
I20
I0
tp3349
(lp3350
I2933
aI4828
aI4829
as(I21
I19
I32
I28
I0
tp3351
(lp3352
I539
aI541
aI544
as(I29
I23
I23
I25
I0
tp3353
(lp3354
I3155
aI4354
as(I18
I29
I30
I22
I1
tp3355
(lp3356
I2153
aI2154
aI2155
as(I31
I26
I24
I18
I1
tp3357
(lp3358
I4012
aI4014
aI4016
aI4017
as(I26
I25
I30
I19
I0
tp3359
(lp3360
I4849
aI4850
as(I24
I16
I27
I32
I1
tp3361
(lp3362
I4551
as(I25
I18
I32
I25
I0
tp3363
(lp3364
I554
as(I20
I25
I27
I28
I0
tp3365
(lp3366
I82
aI84
aI91
aI4696
aI4711
aI4712
aI4718
as(I31
I23
I24
I21
I1
tp3367
(lp3368
I4123
as(I26
I31
I23
I20
I0
tp3369
(lp3370
I4825
as(I32
I22
I27
I17
I2
tp3371
(lp3372
I4049
aI4051
aI4052
aI4053
as(I21
I31
I27
I21
I0
tp3373
(lp3374
I3769
as(I29
I25
I24
I22
I0
tp3375
(lp3376
I3905
as(I22
I21
I31
I26
I0
tp3377
(lp3378
I535
aI1816
aI1817
as(I20
I21
I29
I30
I0
tp3379
(lp3380
I1744
as(I30
I21
I29
I20
I0
tp3381
(lp3382
I1452
as(I17
I29
I24
I30
I0
tp3383
(lp3384
I2791
as(I21
I32
I24
I23
I0
tp3385
(lp3386
I1126
aI2958
as(I31
I26
I19
I24
I0
tp3387
(lp3388
I332
as(I26
I24
I29
I21
I0
tp3389
(lp3390
I1010
aI1013
aI4436
as(I26
I23
I27
I24
I0
tp3391
(lp3392
I3629
as(I34
I27
I22
I17
I0
tp3393
(lp3394
I4177
as(I23
I23
I29
I25
I0
tp3395
(lp3396
I893
aI894
aI1724
aI1725
aI3841
aI4628
aI4632
aI4634
as(I19
I28
I31
I21
I1
tp3397
(lp3398
I1978
aI2148
as(I26
I26
I25
I23
I0
tp3399
(lp3400
I2290
aI2895
aI2896
aI2898
aI2904
aI3295
aI3296
as(I27
I29
I16
I28
I0
tp3401
(lp3402
I779
as(I23
I25
I28
I24
I0
tp3403
(lp3404
I220
aI221
aI622
aI1095
aI1096
aI2270
aI3831
aI3855
as(I24
I26
I24
I26
I0
tp3405
(lp3406
I119
aI1109
aI1111
aI2652
aI3343
aI3887
aI3888
as(I20
I33
I20
I27
I0
tp3407
(lp3408
I3744
as(I20
I30
I29
I20
I1
tp3409
(lp3410
I1974
aI1975
as(I26
I26
I22
I26
I0
tp3411
(lp3412
I2560
as(I27
I20
I31
I22
I0
tp3413
(lp3414
I2071
as(I27
I26
I29
I18
I0
tp3415
(lp3416
I4855
as(I29
I26
I26
I18
I1
tp3417
(lp3418
I4022
aI4024
aI4025
as(I29
I23
I29
I19
I0
tp3419
(lp3420
I3503
aI4421
aI4422
aI4428
as(I28
I21
I29
I21
I1
tp3421
(lp3422
I4504
as(I26
I26
I24
I24
I0
tp3423
(lp3424
I1847
aI2253
aI2255
aI2401
aI2405
aI2406
aI2409
aI2906
aI4746
aI4747
as(I27
I27
I17
I29
I0
tp3425
(lp3426
I391
as(I37
I20
I18
I24
I1
tp3427
(lp3428
I1535
aI1536
aI1537
as(I26
I23
I24
I27
I0
tp3429
(lp3430
I2859
aI2870
aI2871
as(I23
I27
I28
I21
I1
tp3431
(lp3432
I2020
aI4463
as(I27
I21
I30
I22
I0
tp3433
(lp3434
I2068
aI2069
as(I31
I25
I20
I24
I0
tp3435
(lp3436
I333
as(I31
I21
I19
I29
I0
tp3437
(lp3438
I961
as(I24
I24
I24
I28
I0
tp3439
(lp3440
I1274
aI2655
aI3863
as(I23
I23
I32
I22
I0
tp3441
(lp3442
I2109
aI2117
as(I28
I30
I25
I17
I0
tp3443
(lp3444
I2611
aI2612
aI2613
as(I32
I22
I20
I26
I0
tp3445
(lp3446
I4290
as(I24
I28
I22
I25
I1
tp3447
(lp3448
I3359
as(I20
I28
I31
I20
I1
tp3449
(lp3450
I1980
aI1982
as(I28
I21
I31
I20
I0
tp3451
(lp3452
I1407
aI1408
aI1409
as(I25
I33
I24
I18
I0
tp3453
(lp3454
I643
as(I24
I29
I17
I30
I0
tp3455
(lp3456
I394
as(I22
I26
I29
I22
I1
tp3457
(lp3458
I4470
aI4472
aI4478
as(I27
I21
I28
I24
I0
tp3459
(lp3460
I4380
aI4382
aI4401
as(I28
I30
I21
I21
I0
tp3461
(lp3462
I4774
as(I21
I29
I34
I16
I0
tp3463
(lp3464
I834
aI837
as(I31
I19
I28
I22
I0
tp3465
(lp3466
I1462
aI3272
aI3275
aI4372
as(I33
I22
I24
I21
I0
tp3467
(lp3468
I992
aI993
aI1474
aI3260
as(I24
I19
I26
I30
I1
tp3469
(lp3470
I4530
as(I27
I27
I15
I31
I0
tp3471
(lp3472
I411
as(I21
I31
I23
I24
I1
tp3473
(lp3474
I2202
as(I32
I19
I29
I20
I0
tp3475
(lp3476
I1467
as(I26
I25
I27
I21
I1
tp3477
(lp3478
I2029
aI2030
as(I19
I26
I27
I28
I0
tp3479
(lp3480
I92
aI4692
aI4693
aI4694
as(I26
I25
I28
I21
I0
tp3481
(lp3482
I3304
aI3478
aI3480
aI4433
aI4434
aI4435
as(I25
I16
I27
I32
I0
tp3483
(lp3484
I2346
as(I25
I30
I20
I25
I0
tp3485
(lp3486
I2989
aI2990
as(I30
I27
I22
I21
I0
tp3487
(lp3488
I3174
aI3912
as(I21
I26
I23
I30
I0
tp3489
(lp3490
I2480
as(I24
I22
I28
I26
I0
tp3491
(lp3492
I1307
aI1722
aI1830
as(I20
I34
I26
I20
I0
tp3493
(lp3494
I669
as(I26
I28
I22
I24
I0
tp3495
(lp3496
I789
aI792
aI4751
as(I28
I28
I23
I21
I0
tp3497
(lp3498
I2584
aI3806
as(I22
I20
I31
I27
I0
tp3499
(lp3500
I1317
aI1318
aI1814
as(I22
I21
I25
I32
I0
tp3501
(lp3502
I2501
aI3054
aI3055
as(I20
I24
I26
I30
I0
tp3503
(lp3504
I87
aI2664
aI2665
aI2670
aI2671
as(I29
I19
I25
I27
I0
tp3505
(lp3506
I3598
aI3601
as(I33
I29
I19
I19
I0
tp3507
(lp3508
I3963
as(I26
I30
I22
I22
I0
tp3509
(lp3510
I2592
aI4823
as(I21
I32
I23
I24
I0
tp3511
(lp3512
I2967
as(I30
I25
I20
I25
I0
tp3513
(lp3514
I348
aI352
aI353
as(I19
I18
I28
I35
I0
tp3515
(lp3516
I2719
as(I27
I22
I20
I31
I0
tp3517
(lp3518
I4316
aI4317
aI4318
as(I22
I30
I23
I25
I0
tp3519
(lp3520
I457
aI2430
aI2443
aI2444
aI2445
as(I22
I20
I30
I28
I0
tp3521
(lp3522
I1313
aI1314
as(I26
I21
I31
I22
I0
tp3523
(lp3524
I2070
as(I37
I24
I16
I22
I1
tp3525
(lp3526
I1519
as(I18
I17
I28
I37
I0
tp3527
(lp3528
I2717
as(I21
I28
I21
I30
I0
tp3529
(lp3530
I3723
aI3724
as(I26
I23
I31
I20
I0
tp3531
(lp3532
I4452
aI4453
aI4454
as(I18
I25
I27
I30
I0
tp3533
(lp3534
I74
aI75
aI76
aI77
aI4671
as(I22
I29
I23
I26
I0
tp3535
(lp3536
I473
aI2461
as(I24
I20
I29
I27
I0
tp3537
(lp3538
I1351
as(I26
I17
I26
I31
I0
tp3539
(lp3540
I2337
aI2338
aI4561
aI4567
aI4568
aI4570
as(I22
I29
I25
I24
I0
tp3541
(lp3542
I1251
aI2437
aI3782
aI3788
as(I32
I22
I21
I25
I0
tp3543
(lp3544
I1620
aI1623
as(I29
I27
I27
I16
I1
tp3545
(lp3546
I4032
as(I26
I16
I26
I32
I0
tp3547
(lp3548
I4562
aI4566
as(I22
I22
I28
I28
I0
tp3549
(lp3550
I4618
as(I25
I22
I25
I28
I0
tp3551
(lp3552
I178
aI179
aI2388
aI2389
aI2390
aI3865
as(I24
I28
I30
I17
I1
tp3553
(lp3554
I2014
as(I22
I33
I25
I20
I0
tp3555
(lp3556
I686
aI1132
as(I31
I19
I20
I30
I0
tp3557
(lp3558
I759
as(I30
I30
I21
I19
I0
tp3559
(lp3560
I4772
as(I24
I30
I25
I21
I0
tp3561
(lp3562
I1905
as(I19
I35
I26
I20
I0
tp3563
(lp3564
I666
as(I24
I25
I29
I22
I0
tp3565
(lp3566
I490
aI502
aI503
aI507
aI1016
aI1017
aI3307
aI3324
aI3325
as(I33
I18
I30
I19
I0
tp3567
(lp3568
I4894
as(I29
I17
I22
I32
I0
tp3569
(lp3570
I3113
as(I19
I28
I24
I29
I0
tp3571
(lp3572
I2785
aI2787
as(I33
I25
I25
I17
I0
tp3573
(lp3574
I3245
aI3246
as(I29
I22
I25
I24
I0
tp3575
(lp3576
I4410
as(I23
I21
I32
I24
I0
tp3577
(lp3578
I526
aI527
aI528
aI888
as(I27
I18
I26
I29
I0
tp3579
(lp3580
I1338
aI1339
aI2314
aI2316
aI4589
aI4590
aI4591
aI4594
as(I33
I25
I18
I24
I0
tp3581
(lp3582
I344
as(I29
I21
I23
I27
I0
tp3583
(lp3584
I1681
aI3152
aI3153
aI3603
aI3604
aI3605
aI4333
as(I21
I24
I24
I31
I0
tp3585
(lp3586
I2504
as(I18
I23
I26
I33
I0
tp3587
(lp3588
I2682
aI2683
aI2684
as(I29
I22
I23
I26
I0
tp3589
(lp3590
I908
aI1682
aI3154
aI4353
as(I37
I23
I16
I23
I1
tp3591
(lp3592
I1557
aI1558
aI1562
aI1563
aI1565
as(I26
I23
I33
I18
I0
tp3593
(lp3594
I873
as(I36
I24
I19
I21
I0
tp3595
(lp3596
I1506
as(I24
I27
I26
I23
I0
tp3597
(lp3598
I16
aI260
aI264
aI2640
aI3818
aI3819
as(I30
I21
I28
I20
I1
tp3599
(lp3600
I4089
as(I26
I30
I23
I21
I0
tp3601
(lp3602
I4814
aI4817
aI4818
aI4819
aI4820
aI4824
as(I26
I18
I25
I31
I0
tp3603
(lp3604
I3066
aI3067
as(I30
I23
I18
I29
I0
tp3605
(lp3606
I768
aI4303
as(I21
I30
I27
I22
I0
tp3607
(lp3608
I1247
as(I32
I21
I28
I17
I2
tp3609
(lp3610
I4063
as(I29
I23
I22
I26
I0
tp3611
(lp3612
I930
aI933
as(I31
I26
I25
I17
I1
tp3613
(lp3614
I4015
aI4018
as(I30
I22
I25
I23
I0
tp3615
(lp3616
I998
aI999
aI4359
as(I27
I27
I22
I24
I0
tp3617
(lp3618
I4752
aI4757
aI4790
aI4791
as(I36
I23
I17
I23
I1
tp3619
(lp3620
I1522
as(I26
I26
I26
I21
I1
tp3621
(lp3622
I3410
as(I28
I20
I22
I30
I0
tp3623
(lp3624
I738
as(I24
I27
I24
I25
I0
tp3625
(lp3626
I18
aI444
as(I29
I22
I31
I18
I0
tp3627
(lp3628
I1395
aI1396
as(I28
I12
I25
I35
I0
tp3629
(lp3630
I3096
as(I27
I18
I25
I30
I0
tp3631
(lp3632
I4586
aI4588
aI4595
as(I30
I22
I24
I24
I0
tp3633
(lp3634
I978
aI1640
aI4358
as(I25
I18
I29
I28
I0
tp3635
(lp3636
I2364
as(I32
I29
I21
I18
I0
tp3637
(lp3638
I4170
as(I26
I23
I25
I26
I0
tp3639
(lp3640
I2869
aI2872
as(I26
I22
I32
I20
I0
tp3641
(lp3642
I2081
as(I35
I23
I18
I23
I1
tp3643
(lp3644
I1523
aI1524
aI1592
as(I23
I23
I28
I26
I0
tp3645
(lp3646
I1306
aI1714
as(I23
I24
I29
I24
I0
tp3647
(lp3648
I215
aI218
aI219
aI621
aI1052
aI3832
aI3851
aI3853
as(I32
I22
I19
I27
I0
tp3649
(lp3650
I4291
as(I18
I27
I27
I28
I0
tp3651
(lp3652
I4665
aI4666
as(I19
I29
I30
I21
I1
tp3653
(lp3654
I1977
as(I21
I29
I30
I20
I0
tp3655
(lp3656
I1920
aI1921
aI1922
as(I19
I30
I29
I22
I0
tp3657
(lp3658
I1240
aI1242
aI1244
as(I24
I25
I26
I25
I0
tp3659
(lp3660
I115
aI1085
aI1086
aI1102
aI1107
aI1844
aI3333
aI3334
as(I31
I20
I19
I30
I0
tp3661
(lp3662
I733
aI760
as(I37
I21
I17
I24
I1
tp3663
(lp3664
I1534
as(I29
I26
I27
I17
I1
tp3665
(lp3666
I4034
as(I21
I18
I27
I34
I0
tp3667
(lp3668
I2703
aI2705
as(I25
I25
I25
I25
I0
tp3669
(lp3670
I1845
aI2261
aI2266
aI2286
aI2287
aI2395
aI3335
aI3338
aI3339
aI3651
aI3652
aI3686
aI3687
aI3688
aI3689
aI4743
as(I27
I27
I16
I30
I0
tp3671
(lp3672
I409
aI412
aI415
aI416
as(I22
I26
I27
I24
I1
tp3673
(lp3674
I4475
aI4476
as(I22
I32
I25
I21
I0
tp3675
(lp3676
I688
aI689
aI3766
aI3767
as(I22
I28
I29
I21
I0
tp3677
(lp3678
I2631
aI2632
aI3312
aI3313
aI3314
aI3315
aI3316
as(I25
I29
I32
I14
I0
tp3679
(lp3680
I853
as(I21
I33
I25
I21
I0
tp3681
(lp3682
I687
aI1133
as(I27
I25
I17
I31
I0
tp3683
(lp3684
I418
as(I33
I21
I23
I22
I1
tp3685
(lp3686
I4127
as(I20
I26
I26
I28
I0
tp3687
(lp3688
I90
aI94
aI1282
aI2751
aI2752
aI2753
aI2755
aI2756
aI2758
aI4649
as(I31
I21
I28
I20
I0
tp3689
(lp3690
I1453
as(I37
I21
I19
I22
I1
tp3691
(lp3692
I1547
as(I24
I24
I28
I24
I0
tp3693
(lp3694
I1023
aI1069
aI1080
aI3328
as(I18
I20
I31
I31
I0
tp3695
(lp3696
I1770
aI1771
aI1772
as(I29
I27
I25
I19
I0
tp3697
(lp3698
I3189
aI3191
aI3461
aI4163
as(I18
I27
I30
I25
I0
tp3699
(lp3700
I227
aI228
as(I19
I23
I25
I33
I0
tp3701
(lp3702
I2733
as(I29
I22
I26
I23
I0
tp3703
(lp3704
I1002
aI1003
aI3287
as(I23
I28
I22
I27
I0
tp3705
(lp3706
I2424
aI2425
aI3014
as(I25
I28
I26
I21
I0
tp3707
(lp3708
I289
aI697
aI2929
as(I26
I19
I29
I26
I0
tp3709
(lp3710
I592
as(I29
I18
I28
I24
I1
tp3711
(lp3712
I4515
aI4516
aI4517
as(I26
I27
I27
I19
I1
tp3713
(lp3714
I3457
as(I29
I27
I24
I20
I0
tp3715
(lp3716
I3186
aI3187
aI3192
aI4151
aI4152
aI4154
as(I28
I28
I24
I20
I0
tp3717
(lp3718
I4153
as(I30
I19
I29
I22
I0
tp3719
(lp3720
I4376
as(I30
I23
I29
I18
I0
tp3721
(lp3722
I1424
aI4427
as(I21
I32
I22
I24
I1
tp3723
(lp3724
I2201
as(I14
I31
I31
I24
I0
tp3725
(lp3726
I1197
as(I29
I19
I23
I29
I0
tp3727
(lp3728
I3119
as(I34
I22
I23
I21
I0
tp3729
(lp3730
I1482
aI1483
as(I24
I31
I22
I23
I0
tp3731
(lp3732
I2433
as(I26
I17
I22
I35
I0
tp3733
(lp3734
I3079
as(I20
I31
I22
I27
I0
tp3735
(lp3736
I3733
as(I28
I28
I26
I18
I0
tp3737
(lp3738
I281
aI1883
aI1884
as(I25
I24
I34
I17
I0
tp3739
(lp3740
I869
aI870
as(I34
I29
I18
I19
I0
tp3741
(lp3742
I3964
as(I30
I26
I23
I21
I0
tp3743
(lp3744
I3196
aI3911
as(I26
I26
I23
I24
I1
tp3745
(lp3746
I3389
as(I18
I35
I27
I20
I0
tp3747
(lp3748
I664
aI665
as(I20
I21
I30
I29
I0
tp3749
(lp3750
I1745
aI1748
aI1778
aI1781
as(I21
I21
I30
I28
I0
tp3751
(lp3752
I537
as(I23
I24
I25
I28
I0
tp3753
(lp3754
I1270
aI4736
as(I27
I16
I25
I32
I0
tp3755
(lp3756
I4565
as(I30
I26
I27
I17
I0
tp3757
(lp3758
I3495
aI3497
as(I22
I25
I26
I27
I0
tp3759
(lp3760
I1300
aI4640
aI4644
aI4654
aI4655
aI4721
aI4722
as(I22
I30
I22
I26
I0
tp3761
(lp3762
I454
aI2429
as(I27
I22
I28
I23
I0
tp3763
(lp3764
I3613
aI4400
as(I21
I33
I22
I24
I0
tp3765
(lp3766
I2962
aI2965
aI2966
as(I23
I30
I24
I22
I1
tp3767
(lp3768
I2223
as(I19
I27
I26
I28
I0
tp3769
(lp3770
I55
aI59
aI93
aI2820
as(I23
I20
I30
I27
I0
tp3771
(lp3772
I1315
aI1353
as(I32
I19
I30
I17
I2
tp3773
(lp3774
I4073
aI4074
aI4075
as(I23
I23
I33
I21
I0
tp3775
(lp3776
I522
as(I31
I22
I22
I25
I0
tp3777
(lp3778
I1665
aI1667
aI1668
as(I24
I25
I30
I21
I0
tp3779
(lp3780
I508
as(I18
I30
I29
I23
I0
tp3781
(lp3782
I1241
as(I27
I26
I26
I21
I0
tp3783
(lp3784
I2923
aI3182
aI3298
as(I26
I29
I21
I24
I0
tp3785
(lp3786
I791
aI2997
as(I25
I28
I23
I23
I1
tp3787
(lp3788
I2243
aI3371
as(I37
I19
I23
I21
I0
tp3789
(lp3790
I4250
as(I26
I23
I26
I24
I1
tp3791
(lp3792
I4099
as(I18
I31
I26
I25
I0
tp3793
(lp3794
I1218
as(I24
I25
I28
I22
I1
tp3795
(lp3796
I2024
as(I22
I24
I25
I29
I0
tp3797
(lp3798
I2489
aI2490
aI2658
aI3046
aI4729
aI4735
as(I27
I24
I26
I23
I0
tp3799
(lp3800
I1854
aI1855
aI2885
aI2892
aI3290
as(I29
I23
I23
I24
I1
tp3801
(lp3802
I4113
aI4114
aI4115
as(I22
I23
I24
I31
I0
tp3803
(lp3804
I2842
as(I19
I30
I28
I23
I0
tp3805
(lp3806
I1148
aI1149
aI1238
aI1239
as(I21
I18
I28
I33
I0
tp3807
(lp3808
I2701
as(I34
I27
I23
I16
I0
tp3809
(lp3810
I4185
aI4192
as(I25
I21
I32
I22
I0
tp3811
(lp3812
I885
aI2100
as(I20
I23
I25
I32
I0
tp3813
(lp3814
I2506
as(I29
I20
I20
I31
I0
tp3815
(lp3816
I756
as(I29
I22
I22
I26
I1
tp3817
(lp3818
I4110
as(I28
I23
I27
I21
I1
tp3819
(lp3820
I2033
as(I20
I33
I32
I15
I0
tp3821
(lp3822
I1942
as(I20
I29
I24
I27
I0
tp3823
(lp3824
I2452
aI2453
aI2455
as(I28
I28
I25
I18
I1
tp3825
(lp3826
I4027
as(I22
I28
I21
I29
I0
tp3827
(lp3828
I3019
aI3021
as(I22
I26
I25
I27
I0
tp3829
(lp3830
I97
as(I24
I29
I18
I29
I0
tp3831
(lp3832
I397
aI398
as(I33
I20
I27
I20
I0
tp3833
(lp3834
I3519
aI3520
aI3522
as(I37
I23
I27
I13
I0
tp3835
(lp3836
I4202
as(I19
I17
I28
I36
I0
tp3837
(lp3838
I2718
as(I27
I19
I33
I21
I0
tp3839
(lp3840
I2096
as(I33
I22
I25
I20
I0
tp3841
(lp3842
I3256
aI3259
aI3510
aI3511
as(I24
I29
I27
I19
I1
tp3843
(lp3844
I3429
aI3433
aI3435
aI3436
aI3454
as(I33
I24
I19
I24
I0
tp3845
(lp3846
I343
aI3932
as(I38
I17
I23
I22
I0
tp3847
(lp3848
I4244
as(I21
I19
I26
I34
I0
tp3849
(lp3850
I2704
as(I28
I26
I19
I27
I0
tp3851
(lp3852
I374
as(I28
I17
I27
I28
I0
tp3853
(lp3854
I2318
as(I23
I27
I26
I24
I0
tp3855
(lp3856
I263
aI1116
as(I27
I19
I25
I28
I1
tp3857
(lp3858
I4522
as(I26
I25
I24
I25
I0
tp3859
(lp3860
I300
aI2280
aI2281
aI3654
aI4745
as(I20
I28
I23
I29
I0
tp3861
(lp3862
I2768
as(I33
I25
I20
I22
I0
tp3863
(lp3864
I1500
as(I25
I30
I21
I24
I0
tp3865
(lp3866
I3002
as(I31
I23
I28
I16
I2
tp3867
(lp3868
I4043
as(I29
I23
I27
I21
I0
tp3869
(lp3870
I4415
as(I30
I27
I23
I20
I0
tp3871
(lp3872
I3193
aI3195
aI4141
as(I25
I18
I28
I28
I1
tp3873
(lp3874
I4534
as(I20
I20
I25
I35
I0
tp3875
(lp3876
I2727
as(I36
I25
I21
I18
I0
tp3877
(lp3878
I3986
aI3987
aI3988
as(I30
I22
I19
I29
I0
tp3879
(lp3880
I727
aI728
aI960
aI4304
aI4305
aI4346
as(I27
I22
I23
I27
I1
tp3881
(lp3882
I4106
as(I31
I19
I31
I19
I0
tp3883
(lp3884
I4883
aI4885
aI4887
aI4888
as(I32
I20
I29
I17
I2
tp3885
(lp3886
I4067
as(I28
I22
I22
I28
I0
tp3887
(lp3888
I3132
aI4322
aI4323
aI4328
aI4336
as(I33
I19
I25
I23
I0
tp3889
(lp3890
I3529
as(I25
I22
I32
I21
I0
tp3891
(lp3892
I1378
aI1379
aI1386
as(I21
I32
I20
I27
I0
tp3893
(lp3894
I3735
aI3745
aI3755
as(I25
I26
I25
I23
I1
tp3895
(lp3896
I3396
aI3397
as(I36
I27
I19
I18
I0
tp3897
(lp3898
I3983
as(I28
I22
I29
I20
I1
tp3899
(lp3900
I2039
aI4502
as(I26
I17
I23
I34
I0
tp3901
(lp3902
I3074
aI3075
aI3076
aI3077
aI3080
as(I26
I17
I24
I33
I0
tp3903
(lp3904
I3073
as(I16
I29
I24
I31
I0
tp3905
(lp3906
I2793
as(I35
I24
I27
I14
I0
tp3907
(lp3908
I4216
as(I18
I17
I29
I36
I0
tp3909
(lp3910
I2711
aI2712
aI2713
aI2714
aI2715
aI2716
as(I26
I26
I21
I27
I0
tp3911
(lp3912
I126
aI144
as(I22
I23
I25
I30
I0
tp3913
(lp3914
I2499
aI4730
as(I23
I23
I31
I23
I0
tp3915
(lp3916
I2112
aI2113
as(I25
I25
I33
I17
I0
tp3917
(lp3918
I868
as(I30
I18
I31
I21
I0
tp3919
(lp3920
I4872
as(I20
I32
I33
I15
I0
tp3921
(lp3922
I1933
aI1943
as(I15
I31
I30
I24
I0
tp3923
(lp3924
I1176
aI1196
as(I23
I21
I31
I25
I0
tp3925
(lp3926
I532
aI607
aI613
aI615
as(I30
I19
I24
I27
I0
tp3927
(lp3928
I3599
aI3600
as(I23
I34
I25
I18
I0
tp3929
(lp3930
I646
aI647
as(I36
I21
I19
I23
I1
tp3931
(lp3932
I1595
as(I26
I29
I18
I27
I0
tp3933
(lp3934
I404
as(I27
I21
I29
I23
I0
tp3935
(lp3936
I1362
aI3614
as(I33
I16
I27
I24
I0
tp3937
(lp3938
I3538
as(I26
I19
I27
I27
I1
tp3939
(lp3940
I4524
as(I36
I20
I19
I24
I1
tp3941
(lp3942
I1539
as(I20
I30
I32
I18
I0
tp3943
(lp3944
I1926
aI1930
as(I29
I27
I26
I17
I1
tp3945
(lp3946
I4033
as(I22
I28
I28
I22
I0
tp3947
(lp3948
I1915
as(I17
I31
I27
I25
I0
tp3949
(lp3950
I1217
as(I31
I19
I21
I29
I0
tp3951
(lp3952
I4285
aI4286
as(I24
I27
I27
I22
I0
tp3953
(lp3954
I33
aI265
aI2638
aI2639
as(I24
I28
I29
I18
I1
tp3955
(lp3956
I2015
aI3445
as(I28
I24
I27
I21
I0
tp3957
(lp3958
I1859
aI1860
as(I26
I16
I27
I31
I0
tp3959
(lp3960
I4563
as(I27
I25
I27
I21
I0
tp3961
(lp3962
I2275
aI2889
aI2890
as(I24
I27
I29
I19
I1
tp3963
(lp3964
I3443
aI3446
as(I23
I28
I28
I21
I0
tp3965
(lp3966
I629
as(I36
I25
I17
I22
I0
tp3967
(lp3968
I1508
as(I25
I25
I21
I29
I0
tp3969
(lp3970
I3878
aI3879
as(I19
I28
I25
I28
I0
tp3971
(lp3972
I53
aI54
aI56
aI57
as(I27
I18
I27
I28
I0
tp3973
(lp3974
I1334
aI2317
aI2323
aI2328
as(I26
I28
I23
I23
I0
tp3975
(lp3976
I702
aI794
aI2247
aI2590
aI2646
as(I30
I20
I30
I18
I2
tp3977
(lp3978
I4069
as(I21
I24
I25
I30
I0
tp3979
(lp3980
I2662
aI4731
aI4732
aI4733
aI4734
as(I18
I23
I27
I32
I0
tp3981
(lp3982
I2685
aI2686
aI2687
aI2743
as(I17
I19
I31
I33
I0
tp3983
(lp3984
I1766
aI1767
as(I18
I20
I32
I30
I0
tp3985
(lp3986
I1773
aI1774
aI1775
as(I29
I18
I23
I30
I0
tp3987
(lp3988
I3118
as(I20
I22
I29
I29
I0
tp3989
(lp3990
I1743
as(I20
I35
I26
I19
I0
tp3991
(lp3992
I667
aI681
as(I28
I20
I27
I25
I0
tp3993
(lp3994
I3573
aI3574
as(I21
I20
I31
I28
I0
tp3995
(lp3996
I538
as(I34
I20
I22
I24
I0
tp3997
(lp3998
I1489
as.