(dp0
(I45
I55
I0
tp1
(lp2
I4
aI7
aI31
aI224
aI239
aI247
aI249
aI251
aI252
aI253
aI254
aI255
aI270
aI271
aI274
aI280
aI287
aI290
aI484
aI485
aI491
aI492
aI495
aI508
aI509
aI521
aI523
aI625
aI626
aI627
aI628
aI630
aI631
aI635
aI636
aI638
aI639
aI694
aI798
aI799
aI876
aI879
aI882
aI1054
aI1056
aI1064
aI1123
aI1124
aI1249
aI1374
aI1375
aI1377
aI1387
aI1392
aI1393
aI1882
aI1889
aI1890
aI1901
aI1902
aI1903
aI1905
aI1906
aI1909
aI1911
aI1913
aI1914
aI1916
aI2109
aI2110
aI2111
aI2115
aI2116
aI2117
aI2118
aI2119
aI2438
aI2439
aI2440
aI2441
aI2595
aI2596
aI2597
aI2599
aI2611
aI2612
aI2613
aI2615
aI2634
aI2814
aI2933
aI2957
aI2962
aI2965
aI2966
aI2967
aI2968
aI2970
aI2971
aI2973
aI2974
aI2975
aI3308
aI3309
aI3319
aI3320
aI3321
aI3483
aI3488
aI3489
aI3490
aI3491
aI3492
aI3762
aI3763
aI3764
aI3780
aI3783
aI3785
aI4440
aI4441
aI4442
aI4449
aI4451
aI4455
aI4828
aI4829
aI4831
aI4832
aI4833
aI4834
aI4835
aI4843
aI4844
aI4846
aI4848
aI4849
aI4850
aI4851
aI4852
aI4855
as(I35
I65
I0
tp3
(lp4
I820
aI829
aI831
aI832
aI1933
aI1942
aI1943
aI1948
aI1952
as(I57
I42
I1
tp5
(lp6
I1570
aI1571
aI1572
aI1576
aI1578
aI1579
aI1581
aI1584
aI1591
aI1598
aI1601
aI1602
aI1610
aI1611
aI1612
aI1613
aI1614
aI4558
as(I61
I39
I0
tp7
(lp8
I732
aI733
aI758
aI759
aI760
aI761
aI763
aI766
aI3079
aI3081
aI3084
aI3085
aI3086
aI3105
aI3106
aI3113
as(I41
I59
I0
tp9
(lp10
I645
aI646
aI647
aI649
aI650
aI652
aI654
aI659
aI684
aI685
aI807
aI867
aI1134
aI1135
aI1142
aI1143
aI1150
aI1151
aI1179
aI1180
aI1182
aI1183
aI1186
aI1187
aI1191
aI1216
aI1240
aI1241
aI1242
aI1244
aI1920
aI1921
aI1922
aI2134
aI2145
aI2146
as(I64
I36
I0
tp11
(lp12
I3091
aI3092
aI3093
aI3094
aI3095
as(I47
I53
I0
tp13
(lp14
I1
aI2
aI9
aI10
aI11
aI13
aI14
aI16
aI26
aI28
aI36
aI42
aI43
aI45
aI47
aI51
aI52
aI53
aI54
aI55
aI56
aI57
aI59
aI62
aI63
aI65
aI66
aI67
aI92
aI93
aI100
aI101
aI102
aI103
aI215
aI218
aI219
aI220
aI221
aI222
aI259
aI260
aI262
aI263
aI264
aI266
aI267
aI268
aI285
aI292
aI455
aI456
aI457
aI458
aI464
aI465
aI466
aI481
aI488
aI489
aI498
aI500
aI501
aI504
aI505
aI506
aI525
aI526
aI527
aI528
aI611
aI612
aI617
aI619
aI621
aI622
aI698
aI699
aI700
aI796
aI885
aI886
aI888
aI889
aI891
aI892
aI1010
aI1013
aI1014
aI1015
aI1018
aI1019
aI1020
aI1021
aI1022
aI1024
aI1045
aI1046
aI1047
aI1048
aI1049
aI1050
aI1051
aI1052
aI1066
aI1067
aI1068
aI1070
aI1089
aI1090
aI1091
aI1095
aI1096
aI1097
aI1098
aI1099
aI1114
aI1115
aI1116
aI1117
aI1120
aI1252
aI1253
aI1284
aI1285
aI1304
aI1372
aI1384
aI1385
aI1395
aI1396
aI1397
aI1425
aI1428
aI1429
aI1434
aI1435
aI1437
aI1438
aI1726
aI1751
aI1752
aI1753
aI1838
aI1862
aI1863
aI1866
aI1867
aI1870
aI1875
aI1876
aI1877
aI1879
aI1885
aI1893
aI1894
aI1895
aI1896
aI2073
aI2074
aI2082
aI2083
aI2084
aI2086
aI2087
aI2090
aI2097
aI2100
aI2270
aI2271
aI2430
aI2431
aI2433
aI2434
aI2435
aI2436
aI2443
aI2444
aI2445
aI2447
aI2448
aI2450
aI2452
aI2453
aI2455
aI2456
aI2457
aI2458
aI2459
aI2460
aI2462
aI2464
aI2466
aI2468
aI2473
aI2593
aI2640
aI2757
aI2783
aI2784
aI2788
aI2791
aI2793
aI2795
aI2800
aI2804
aI2806
aI2807
aI2808
aI2809
aI2810
aI2811
aI2816
aI2817
aI2820
aI2924
aI2925
aI2926
aI2939
aI2947
aI2948
aI2949
aI2952
aI2954
aI2955
aI2980
aI2981
aI3183
aI3184
aI3301
aI3302
aI3303
aI3304
aI3305
aI3306
aI3326
aI3327
aI3459
aI3472
aI3476
aI3477
aI3478
aI3479
aI3480
aI3485
aI3495
aI3496
aI3497
aI3733
aI3734
aI3744
aI3759
aI3790
aI3791
aI3792
aI3794
aI3797
aI3798
aI3799
aI3801
aI3810
aI3812
aI3816
aI3817
aI3818
aI3819
aI3820
aI3821
aI3830
aI3831
aI3832
aI3835
aI3836
aI3837
aI3838
aI3840
aI3842
aI3844
aI3845
aI3846
aI3847
aI3851
aI3853
aI3855
aI3858
aI4145
aI4146
aI4207
aI4208
aI4210
aI4431
aI4432
aI4433
aI4434
aI4435
aI4436
aI4437
aI4438
aI4630
aI4633
aI4650
aI4664
aI4667
aI4668
aI4670
aI4683
aI4686
aI4688
aI4689
aI4690
aI4691
aI4692
aI4693
aI4694
aI4695
aI4801
aI4802
aI4804
aI4808
aI4814
aI4817
aI4818
aI4819
aI4820
aI4821
aI4824
aI4857
aI4859
as(I42
I58
I0
tp15
(lp16
I232
aI233
aI235
aI644
aI651
aI653
aI686
aI687
aI690
aI804
aI806
aI868
aI869
aI870
aI1132
aI1133
aI1144
aI1145
aI1146
aI1147
aI1148
aI1149
aI1184
aI1185
aI1188
aI1189
aI1190
aI1217
aI1231
aI1232
aI1233
aI1234
aI1235
aI1236
aI1237
aI1238
aI1239
aI1243
aI1245
aI1919
aI2133
aI2135
aI2136
aI2137
aI2138
aI2139
aI2140
aI2142
aI2144
aI2620
aI2621
aI2622
aI2623
aI2624
aI2625
aI2626
aI2627
aI2628
aI3769
as(I54
I45
I1
tp17
(lp18
I3990
aI3991
aI3992
aI4106
aI4111
aI4112
aI4126
aI4128
aI4130
aI4520
aI4523
aI4526
aI4528
aI4530
aI4531
aI4532
aI4533
aI4540
aI4541
aI4542
aI4543
aI4545
as(I49
I51
I0
tp19
(lp20
I18
aI20
aI21
aI70
aI71
aI72
aI79
aI80
aI81
aI85
aI86
aI89
aI97
aI105
aI106
aI112
aI113
aI114
aI115
aI118
aI120
aI204
aI205
aI206
aI209
aI210
aI211
aI294
aI439
aI440
aI441
aI442
aI443
aI444
aI446
aI447
aI448
aI449
aI453
aI468
aI475
aI476
aI477
aI534
aI536
aI537
aI538
aI539
aI540
aI541
aI542
aI544
aI545
aI547
aI549
aI550
aI551
aI553
aI599
aI601
aI602
aI702
aI705
aI706
aI793
aI794
aI896
aI1008
aI1029
aI1030
aI1031
aI1032
aI1038
aI1039
aI1072
aI1073
aI1074
aI1075
aI1076
aI1077
aI1079
aI1081
aI1082
aI1083
aI1084
aI1085
aI1086
aI1102
aI1103
aI1104
aI1105
aI1106
aI1107
aI1112
aI1256
aI1257
aI1262
aI1263
aI1264
aI1278
aI1287
aI1288
aI1300
aI1306
aI1308
aI1310
aI1316
aI1317
aI1318
aI1319
aI1320
aI1321
aI1356
aI1359
aI1361
aI1364
aI1365
aI1367
aI1369
aI1401
aI1406
aI1410
aI1411
aI1412
aI1415
aI1416
aI1417
aI1418
aI1423
aI1431
aI1432
aI1440
aI1444
aI1449
aI1450
aI1714
aI1723
aI1728
aI1743
aI1745
aI1747
aI1748
aI1749
aI1757
aI1758
aI1759
aI1760
aI1761
aI1765
aI1768
aI1769
aI1770
aI1771
aI1772
aI1776
aI1777
aI1778
aI1779
aI1780
aI1781
aI1793
aI1794
aI1795
aI1796
aI1797
aI1803
aI1804
aI1805
aI1806
aI1810
aI1811
aI1813
aI1814
aI1815
aI1819
aI1836
aI1840
aI1841
aI1844
aI1846
aI1856
aI1857
aI1858
aI1859
aI1860
aI2055
aI2057
aI2059
aI2060
aI2063
aI2064
aI2065
aI2067
aI2068
aI2069
aI2071
aI2095
aI2247
aI2248
aI2252
aI2268
aI2273
aI2274
aI2276
aI2277
aI2283
aI2284
aI2290
aI2291
aI2292
aI2407
aI2408
aI2410
aI2412
aI2417
aI2419
aI2421
aI2422
aI2426
aI2427
aI2476
aI2477
aI2484
aI2485
aI2580
aI2581
aI2582
aI2583
aI2584
aI2585
aI2590
aI2591
aI2643
aI2644
aI2646
aI2672
aI2675
aI2676
aI2690
aI2737
aI2748
aI2759
aI2762
aI2765
aI2768
aI2772
aI2775
aI2779
aI2786
aI2797
aI2798
aI2827
aI2829
aI2830
aI2886
aI2887
aI2888
aI2891
aI2893
aI2895
aI2896
aI2898
aI2904
aI2905
aI2907
aI2922
aI2943
aI2983
aI2984
aI2985
aI2986
aI2987
aI2988
aI2991
aI2995
aI2996
aI2998
aI2999
aI3002
aI3004
aI3005
aI3007
aI3008
aI3009
aI3012
aI3013
aI3179
aI3180
aI3186
aI3187
aI3188
aI3190
aI3192
aI3242
aI3243
aI3295
aI3296
aI3329
aI3330
aI3331
aI3332
aI3333
aI3334
aI3336
aI3337
aI3358
aI3464
aI3465
aI3467
aI3468
aI3470
aI3500
aI3501
aI3502
aI3504
aI3505
aI3506
aI3616
aI3622
aI3623
aI3624
aI3625
aI3626
aI3627
aI3628
aI3649
aI3650
aI3704
aI3706
aI3726
aI3727
aI3730
aI3731
aI3738
aI3739
aI3746
aI3747
aI3748
aI3749
aI3751
aI3752
aI3753
aI3754
aI3804
aI3805
aI3806
aI3807
aI3808
aI3823
aI3827
aI3828
aI3860
aI3890
aI3891
aI3892
aI4142
aI4150
aI4151
aI4152
aI4154
aI4155
aI4156
aI4158
aI4159
aI4161
aI4162
aI4164
aI4167
aI4173
aI4174
aI4175
aI4193
aI4203
aI4204
aI4216
aI4391
aI4392
aI4393
aI4394
aI4396
aI4397
aI4414
aI4416
aI4417
aI4418
aI4419
aI4420
aI4423
aI4426
aI4429
aI4622
aI4625
aI4636
aI4640
aI4644
aI4647
aI4654
aI4655
aI4657
aI4658
aI4659
aI4660
aI4661
aI4672
aI4675
aI4676
aI4678
aI4679
aI4680
aI4681
aI4701
aI4702
aI4703
aI4704
aI4706
aI4708
aI4714
aI4717
aI4720
aI4721
aI4722
aI4724
aI4727
aI4772
aI4773
aI4774
aI4775
aI4776
aI4780
aI4783
aI4793
aI4799
aI4864
aI4866
aI4874
aI4876
aI4877
aI4878
aI4880
aI4884
aI4890
aI4899
aI4900
as(I37
I62
I1
tp21
(lp22
I1955
aI1957
aI1958
aI1961
aI1963
aI1964
aI1965
aI1968
as(I51
I48
I1
tp23
(lp24
I3390
aI3995
aI3996
aI3998
aI4001
aI4002
aI4093
aI4094
aI4095
aI4097
aI4098
aI4100
aI4102
aI4509
aI4510
aI4511
aI4512
as(I56
I44
I0
tp25
(lp26
I158
aI342
aI345
aI346
aI347
aI349
aI350
aI351
aI354
aI355
aI383
aI384
aI387
aI390
aI391
aI408
aI413
aI414
aI420
aI421
aI422
aI423
aI424
aI426
aI717
aI774
aI775
aI776
aI777
aI909
aI910
aI925
aI927
aI928
aI929
aI931
aI932
aI935
aI949
aI968
aI969
aI971
aI972
aI974
aI975
aI1338
aI1339
aI1340
aI1341
aI1481
aI1487
aI1492
aI1493
aI1504
aI1505
aI1619
aI1621
aI1622
aI1629
aI1643
aI1647
aI1649
aI1650
aI1652
aI1655
aI1656
aI1665
aI1666
aI1667
aI1668
aI1669
aI1679
aI1680
aI1681
aI2311
aI2313
aI2314
aI2316
aI2318
aI2319
aI2320
aI2321
aI2331
aI2333
aI2334
aI2335
aI2336
aI2339
aI2340
aI2341
aI2345
aI2351
aI2352
aI2357
aI2358
aI2370
aI2371
aI2372
aI2373
aI2375
aI2528
aI2530
aI2706
aI2707
aI2724
aI2725
aI2726
aI3064
aI3065
aI3132
aI3133
aI3134
aI3152
aI3153
aI3159
aI3210
aI3212
aI3214
aI3215
aI3216
aI3217
aI3220
aI3222
aI3224
aI3225
aI3226
aI3228
aI3230
aI3231
aI3232
aI3265
aI3526
aI3528
aI3529
aI3530
aI3535
aI3536
aI3537
aI3539
aI3553
aI3554
aI3581
aI3583
aI3584
aI3586
aI3587
aI3588
aI3589
aI3597
aI3598
aI3601
aI3602
aI3603
aI3604
aI3605
aI3929
aI3930
aI3931
aI3933
aI3934
aI3935
aI3937
aI3938
aI3939
aI3942
aI3945
aI3954
aI3956
aI3957
aI4232
aI4235
aI4236
aI4237
aI4320
aI4321
aI4322
aI4323
aI4328
aI4333
aI4336
aI4337
aI4338
aI4349
aI4350
aI4352
aI4560
aI4571
aI4572
aI4573
aI4574
aI4575
aI4576
aI4577
aI4579
aI4581
aI4589
aI4590
aI4591
aI4592
aI4593
aI4594
aI4596
as(I53
I46
I1
tp27
(lp28
I3989
aI3993
aI4105
aI4113
aI4114
aI4115
aI4119
aI4120
aI4122
aI4124
aI4125
aI4129
aI4131
aI4132
aI4133
aI4134
aI4514
aI4515
aI4516
aI4517
aI4518
aI4519
aI4524
aI4525
aI4529
aI4534
aI4535
aI4536
aI4537
aI4539
as(I48
I52
I0
tp29
(lp30
I15
aI17
aI19
aI22
aI23
aI24
aI25
aI44
aI60
aI61
aI68
aI69
aI73
aI74
aI75
aI76
aI77
aI78
aI82
aI83
aI84
aI90
aI91
aI94
aI95
aI96
aI98
aI99
aI104
aI107
aI108
aI109
aI110
aI111
aI212
aI213
aI214
aI261
aI293
aI450
aI451
aI452
aI454
aI467
aI469
aI470
aI471
aI472
aI473
aI474
aI478
aI479
aI480
aI499
aI529
aI530
aI531
aI532
aI533
aI535
aI543
aI603
aI604
aI605
aI606
aI607
aI608
aI609
aI610
aI613
aI614
aI615
aI616
aI620
aI701
aI795
aI887
aI893
aI894
aI895
aI1009
aI1023
aI1025
aI1026
aI1027
aI1028
aI1040
aI1041
aI1042
aI1043
aI1044
aI1069
aI1071
aI1080
aI1087
aI1088
aI1092
aI1093
aI1094
aI1100
aI1101
aI1113
aI1254
aI1255
aI1279
aI1280
aI1281
aI1282
aI1283
aI1286
aI1301
aI1302
aI1303
aI1305
aI1360
aI1366
aI1370
aI1371
aI1398
aI1399
aI1400
aI1407
aI1408
aI1409
aI1419
aI1420
aI1421
aI1422
aI1424
aI1426
aI1427
aI1430
aI1433
aI1439
aI1441
aI1442
aI1443
aI1724
aI1725
aI1727
aI1750
aI1754
aI1755
aI1756
aI1773
aI1774
aI1775
aI1816
aI1817
aI1818
aI1837
aI1839
aI1861
aI1864
aI1865
aI1868
aI1869
aI2056
aI2058
aI2061
aI2062
aI2066
aI2070
aI2072
aI2091
aI2092
aI2093
aI2094
aI2096
aI2249
aI2250
aI2251
aI2269
aI2272
aI2275
aI2411
aI2413
aI2414
aI2415
aI2416
aI2418
aI2428
aI2429
aI2432
aI2451
aI2461
aI2465
aI2467
aI2469
aI2470
aI2471
aI2472
aI2474
aI2475
aI2586
aI2587
aI2588
aI2589
aI2592
aI2641
aI2642
aI2749
aI2750
aI2751
aI2752
aI2753
aI2754
aI2755
aI2756
aI2758
aI2760
aI2761
aI2766
aI2767
aI2769
aI2770
aI2771
aI2773
aI2774
aI2776
aI2777
aI2778
aI2780
aI2781
aI2782
aI2785
aI2787
aI2789
aI2790
aI2796
aI2799
aI2805
aI2821
aI2822
aI2823
aI2824
aI2825
aI2826
aI2889
aI2890
aI2897
aI2923
aI2940
aI2941
aI2942
aI2944
aI2945
aI2946
aI2950
aI2951
aI2953
aI2982
aI2992
aI2993
aI2994
aI3000
aI3001
aI3003
aI3006
aI3181
aI3182
aI3185
aI3189
aI3191
aI3297
aI3298
aI3299
aI3300
aI3328
aI3460
aI3461
aI3462
aI3463
aI3466
aI3469
aI3471
aI3473
aI3474
aI3475
aI3498
aI3499
aI3503
aI3617
aI3618
aI3619
aI3620
aI3621
aI3705
aI3728
aI3729
aI3732
aI3735
aI3736
aI3737
aI3740
aI3741
aI3742
aI3743
aI3745
aI3755
aI3756
aI3757
aI3758
aI3802
aI3803
aI3809
aI3811
aI3822
aI3824
aI3825
aI3826
aI3829
aI3833
aI3834
aI3841
aI3852
aI3859
aI4143
aI4144
aI4147
aI4148
aI4149
aI4153
aI4157
aI4163
aI4205
aI4206
aI4211
aI4212
aI4213
aI4214
aI4215
aI4421
aI4422
aI4427
aI4428
aI4430
aI4626
aI4627
aI4628
aI4629
aI4631
aI4632
aI4634
aI4635
aI4648
aI4649
aI4651
aI4652
aI4653
aI4656
aI4662
aI4663
aI4671
aI4682
aI4696
aI4697
aI4698
aI4699
aI4700
aI4709
aI4710
aI4711
aI4712
aI4713
aI4718
aI4719
aI4723
aI4777
aI4778
aI4779
aI4781
aI4782
aI4794
aI4795
aI4796
aI4797
aI4798
aI4800
aI4803
aI4809
aI4810
aI4811
aI4812
aI4813
aI4822
aI4823
aI4860
aI4861
aI4862
aI4863
aI4865
as(I39
I61
I0
tp31
(lp32
I661
aI663
aI666
aI667
aI671
aI672
aI675
aI679
aI681
aI682
aI809
aI811
aI812
aI814
aI815
aI852
aI853
aI857
aI860
aI861
aI863
aI864
aI1139
aI1156
aI1157
aI1162
aI1163
aI1164
aI1176
aI1196
aI1198
aI1202
aI1203
aI1207
aI1208
aI1209
aI1925
as(I38
I61
I1
tp33
(lp34
I1956
aI1962
aI1966
aI1967
aI1969
aI1993
as(I62
I38
I0
tp35
(lp36
I762
aI764
aI765
aI3087
aI3097
aI3099
aI3100
aI3101
aI3102
aI3103
aI3104
as(I55
I44
I1
tp37
(lp38
I1605
aI1606
aI4107
aI4110
aI4127
aI4521
aI4522
aI4527
aI4544
aI4546
aI4547
aI4552
aI4553
aI4554
aI4555
as(I36
I64
I0
tp39
(lp40
I819
aI821
aI823
aI827
aI828
aI830
aI833
aI838
aI839
aI840
aI1167
aI1168
aI1169
aI1932
aI1934
aI1940
aI1941
aI1944
aI1945
aI1947
aI1953
as(I46
I53
I1
tp41
(lp42
I2024
aI2025
aI2026
aI2179
aI2183
aI2188
aI2204
aI2206
aI2210
aI2226
aI2227
aI2228
aI2231
aI2235
aI2236
aI2237
aI3363
aI3364
aI3366
aI3367
aI3368
aI3374
aI3376
aI3377
aI3379
aI3380
aI3384
aI3385
aI3399
aI3400
aI3424
aI3425
aI3458
aI4026
aI4027
aI4028
aI4029
aI4030
aI4031
aI4033
aI4034
aI4475
aI4476
aI4480
aI4481
aI4489
as(I48
I50
I2
tp43
(lp44
I4046
aI4048
aI4050
aI4054
aI4055
aI4056
aI4057
aI4058
aI4059
aI4060
aI4062
aI4064
aI4065
aI4066
aI4068
aI4069
aI4071
aI4076
aI4077
aI4078
aI4081
aI4083
aI4084
as(I34
I66
I0
tp45
(lp46
I1949
aI1951
as(I53
I47
I0
tp47
(lp48
I125
aI126
aI144
aI153
aI154
aI178
aI179
aI183
aI184
aI189
aI194
aI302
aI303
aI305
aI306
aI312
aI313
aI314
aI315
aI316
aI327
aI328
aI329
aI330
aI364
aI367
aI368
aI377
aI379
aI395
aI397
aI398
aI400
aI401
aI402
aI404
aI429
aI562
aI563
aI564
aI582
aI585
aI712
aI713
aI714
aI784
aI904
aI905
aI906
aI985
aI986
aI987
aI988
aI994
aI998
aI999
aI1328
aI1329
aI1330
aI1331
aI1345
aI1346
aI1348
aI1349
aI1460
aI1461
aI1462
aI1470
aI1471
aI1472
aI1633
aI1634
aI1707
aI1738
aI2300
aI2302
aI2304
aI2306
aI2361
aI2364
aI2365
aI2378
aI2382
aI2387
aI2388
aI2389
aI2390
aI2494
aI2496
aI2497
aI2498
aI2500
aI2502
aI2515
aI2516
aI2517
aI2542
aI2700
aI2730
aI2731
aI2732
aI2837
aI2838
aI2842
aI2847
aI2848
aI2849
aI2850
aI2851
aI2853
aI2854
aI2855
aI2856
aI2859
aI2862
aI2863
aI2864
aI2865
aI2866
aI2867
aI2870
aI2871
aI2873
aI2874
aI2875
aI2876
aI2877
aI2878
aI3027
aI3028
aI3029
aI3039
aI3049
aI3050
aI3052
aI3053
aI3164
aI3169
aI3199
aI3200
aI3202
aI3204
aI3235
aI3236
aI3237
aI3255
aI3256
aI3257
aI3259
aI3269
aI3270
aI3271
aI3272
aI3273
aI3274
aI3275
aI3276
aI3277
aI3279
aI3280
aI3281
aI3286
aI3353
aI3510
aI3511
aI3514
aI3519
aI3520
aI3522
aI3558
aI3559
aI3563
aI3566
aI3568
aI3573
aI3574
aI3575
aI3608
aI3609
aI3610
aI3656
aI3657
aI3658
aI3659
aI3670
aI3671
aI3677
aI3679
aI3713
aI3714
aI3717
aI3718
aI3719
aI3721
aI3865
aI3876
aI3880
aI3881
aI3882
aI3883
aI3884
aI3914
aI3916
aI3918
aI3919
aI3921
aI3922
aI3924
aI3961
aI3962
aI3964
aI3968
aI3969
aI3971
aI3972
aI3974
aI3975
aI3977
aI3978
aI3979
aI3981
aI4135
aI4137
aI4221
aI4222
aI4223
aI4224
aI4225
aI4226
aI4227
aI4228
aI4359
aI4362
aI4365
aI4366
aI4367
aI4368
aI4372
aI4373
aI4407
aI4408
aI4409
aI4410
aI4603
aI4604
aI4605
aI4606
aI4765
aI4766
as(I60
I40
I0
tp49
(lp50
I729
aI731
aI734
aI750
aI756
aI757
aI767
aI961
aI962
aI1515
aI1516
aI3074
aI3075
aI3076
aI3077
aI3078
aI3080
aI3082
aI3083
aI3107
aI3108
aI3109
aI3111
aI3112
aI3114
aI3143
aI4243
aI4244
aI4245
aI4257
aI4263
aI4264
aI4267
aI4285
aI4286
aI4292
aI4293
as(I36
I63
I1
tp51
(lp52
I1959
aI1960
as(I50
I49
I1
tp53
(lp54
I3389
aI3391
aI3416
aI3997
aI4003
aI4004
aI4089
aI4090
aI4091
aI4092
aI4096
aI4099
aI4497
aI4498
aI4499
aI4500
aI4508
as(I43
I56
I1
tp55
(lp56
I2019
aI2161
aI2170
aI2171
aI2172
aI2173
aI3429
aI3432
aI3433
aI3435
aI3436
aI3442
aI3443
aI3444
aI3446
aI3451
aI3454
aI4462
aI4464
aI4468
aI4469
as(I63
I37
I0
tp57
(lp58
I3088
aI3089
aI3090
aI3096
aI3098
as(I52
I47
I1
tp59
(lp60
I3994
aI3999
aI4000
aI4101
aI4103
aI4104
aI4116
aI4117
aI4118
aI4121
aI4123
aI4513
aI4538
as(I61
I38
I1
tp61
(lp62
I1534
aI1535
aI1536
aI1537
aI1538
aI1542
aI1543
aI1544
aI1545
aI1550
aI1552
aI1559
aI1560
aI1561
as(I42
I57
I1
tp63
(lp64
I2015
aI2017
aI2018
aI2150
aI2151
aI2160
aI2162
aI2163
aI2164
aI2165
aI2166
aI2168
aI2169
aI3430
aI3431
aI3437
aI3439
aI3440
aI3441
aI3445
aI3452
aI3453
aI4465
aI4466
aI4467
as(I59
I40
I1
tp65
(lp66
I1519
aI1520
aI1521
aI1522
aI1525
aI1526
aI1528
aI1531
aI1532
aI1547
aI1554
aI1566
aI1595
aI1596
as(I52
I48
I0
tp67
(lp68
I124
aI185
aI186
aI187
aI188
aI195
aI196
aI198
aI301
aI307
aI310
aI311
aI317
aI320
aI325
aI326
aI396
aI399
aI430
aI560
aI561
aI565
aI577
aI578
aI579
aI580
aI581
aI583
aI584
aI586
aI587
aI590
aI591
aI592
aI593
aI594
aI711
aI785
aI786
aI900
aI901
aI902
aI903
aI1000
aI1001
aI1002
aI1003
aI1274
aI1325
aI1326
aI1327
aI1350
aI1456
aI1457
aI1458
aI1459
aI1463
aI1464
aI1466
aI1467
aI1468
aI1469
aI1708
aI1717
aI1718
aI1719
aI1733
aI1734
aI1735
aI1736
aI1737
aI1739
aI1740
aI1826
aI1827
aI1832
aI1833
aI1850
aI1851
aI1852
aI2296
aI2297
aI2298
aI2299
aI2301
aI2379
aI2381
aI2391
aI2392
aI2393
aI2492
aI2493
aI2499
aI2503
aI2504
aI2505
aI2506
aI2507
aI2508
aI2509
aI2510
aI2511
aI2512
aI2513
aI2514
aI2543
aI2553
aI2554
aI2559
aI2560
aI2561
aI2562
aI2563
aI2564
aI2565
aI2566
aI2655
aI2656
aI2657
aI2694
aI2695
aI2696
aI2697
aI2698
aI2699
aI2733
aI2836
aI2839
aI2841
aI2843
aI2844
aI2845
aI2846
aI2868
aI2869
aI2872
aI2879
aI2880
aI2881
aI3020
aI3024
aI3025
aI3026
aI3040
aI3041
aI3042
aI3044
aI3045
aI3048
aI3051
aI3165
aI3166
aI3167
aI3168
aI3170
aI3197
aI3198
aI3238
aI3250
aI3251
aI3252
aI3254
aI3278
aI3287
aI3352
aI3354
aI3509
aI3560
aI3561
aI3562
aI3564
aI3565
aI3567
aI3611
aI3633
aI3655
aI3678
aI3680
aI3692
aI3693
aI3695
aI3712
aI3715
aI3716
aI3722
aI3863
aI3864
aI3885
aI3896
aI3897
aI3913
aI3917
aI3920
aI3923
aI3963
aI3965
aI3966
aI3967
aI4138
aI4178
aI4179
aI4182
aI4188
aI4189
aI4190
aI4220
aI4360
aI4361
aI4363
aI4364
aI4369
aI4370
aI4371
aI4374
aI4376
aI4377
aI4378
aI4379
aI4405
aI4406
aI4411
aI4607
aI4608
aI4609
aI4612
aI4613
aI4730
aI4755
aI4756
aI4763
aI4764
aI4767
aI4894
as(I39
I60
I1
tp69
(lp70
I1970
aI1971
aI1979
aI1983
aI1984
aI1985
aI1986
aI1987
aI1988
aI1991
aI1992
aI1994
aI1995
aI1996
aI1999
aI2000
aI2004
as(I58
I41
I1
tp71
(lp72
I1523
aI1524
aI1527
aI1567
aI1568
aI1569
aI1580
aI1582
aI1583
aI1585
aI1586
aI1587
aI1588
aI1589
aI1590
aI1592
aI1593
aI1594
aI1597
aI1599
aI1600
as(I60
I39
I1
tp73
(lp74
I1529
aI1530
aI1533
aI1539
aI1540
aI1541
aI1546
aI1548
aI1549
aI1551
aI1553
aI1555
aI1556
aI1557
aI1558
aI1562
aI1563
aI1564
aI1565
as(I45
I54
I1
tp75
(lp76
I2022
aI2023
aI2175
aI2177
aI2178
aI2180
aI2181
aI2182
aI2184
aI2185
aI2186
aI2187
aI2189
aI2190
aI2191
aI2192
aI2193
aI2198
aI2199
aI2201
aI2202
aI2203
aI2205
aI2207
aI2208
aI2209
aI2211
aI2212
aI2213
aI2215
aI2216
aI2217
aI2218
aI2221
aI2222
aI2223
aI2224
aI2225
aI3365
aI3375
aI3426
aI3427
aI3457
aI4032
aI4471
aI4474
aI4477
aI4479
aI4482
aI4483
aI4484
aI4485
aI4486
aI4487
aI4488
as(I46
I52
I2
tp77
(lp78
I4035
aI4036
aI4037
aI4038
aI4044
as(I59
I41
I0
tp79
(lp80
I727
aI728
aI730
aI735
aI739
aI740
aI743
aI744
aI745
aI747
aI748
aI749
aI751
aI752
aI753
aI754
aI755
aI768
aI769
aI770
aI771
aI940
aI941
aI942
aI945
aI958
aI959
aI960
aI963
aI1514
aI1517
aI1518
aI1674
aI3073
aI3110
aI3115
aI3116
aI3117
aI3118
aI3123
aI3125
aI3139
aI3140
aI3141
aI3142
aI3144
aI3145
aI3146
aI3147
aI3148
aI4242
aI4246
aI4247
aI4248
aI4249
aI4255
aI4256
aI4258
aI4259
aI4260
aI4261
aI4262
aI4265
aI4266
aI4268
aI4269
aI4270
aI4275
aI4280
aI4281
aI4284
aI4287
aI4288
aI4289
aI4291
aI4294
aI4295
aI4296
aI4303
aI4304
aI4305
aI4346
aI4565
as(I37
I63
I0
tp81
(lp82
I677
aI818
aI822
aI824
aI825
aI826
aI834
aI835
aI836
aI837
aI841
aI842
aI843
aI844
aI845
aI850
aI1160
aI1166
aI1170
aI1171
aI1172
aI1174
aI1927
aI1928
aI1929
aI1931
aI1935
aI1936
aI1937
aI1938
aI1939
aI1946
aI1954
as(I54
I46
I0
tp83
(lp84
I127
aI128
aI134
aI136
aI142
aI143
aI145
aI147
aI148
aI150
aI151
aI152
aI155
aI156
aI160
aI161
aI163
aI166
aI168
aI171
aI172
aI175
aI176
aI177
aI180
aI181
aI182
aI190
aI191
aI192
aI193
aI304
aI331
aI337
aI338
aI339
aI358
aI359
aI360
aI361
aI362
aI363
aI365
aI366
aI369
aI370
aI371
aI372
aI373
aI375
aI376
aI378
aI380
aI381
aI394
aI403
aI405
aI406
aI428
aI715
aI783
aI907
aI977
aI978
aI981
aI982
aI983
aI984
aI989
aI990
aI991
aI992
aI993
aI995
aI996
aI997
aI1332
aI1333
aI1335
aI1343
aI1344
aI1347
aI1473
aI1474
aI1476
aI1478
aI1495
aI1499
aI1632
aI1635
aI1638
aI1640
aI1660
aI1661
aI1662
aI1683
aI1684
aI1685
aI1686
aI1687
aI1688
aI1689
aI1690
aI1692
aI1695
aI1696
aI1700
aI1701
aI1702
aI1704
aI1706
aI2303
aI2305
aI2307
aI2324
aI2325
aI2326
aI2327
aI2360
aI2362
aI2363
aI2366
aI2367
aI2377
aI2383
aI2386
aI2495
aI2501
aI2518
aI2519
aI2520
aI2521
aI2522
aI2523
aI2524
aI2525
aI2536
aI2541
aI2701
aI2702
aI2711
aI2712
aI2713
aI2714
aI2715
aI2716
aI2719
aI2720
aI2721
aI2728
aI2729
aI2852
aI2857
aI2858
aI2860
aI2861
aI3030
aI3031
aI3032
aI3037
aI3038
aI3054
aI3055
aI3062
aI3155
aI3156
aI3161
aI3163
aI3201
aI3203
aI3205
aI3206
aI3234
aI3258
aI3260
aI3261
aI3262
aI3268
aI3282
aI3285
aI3512
aI3513
aI3515
aI3516
aI3518
aI3521
aI3523
aI3556
aI3557
aI3569
aI3570
aI3571
aI3572
aI3576
aI3577
aI3578
aI3579
aI3595
aI3607
aI3660
aI3661
aI3663
aI3664
aI3668
aI3669
aI3672
aI3673
aI3674
aI3675
aI3676
aI3720
aI3866
aI3867
aI3868
aI3870
aI3871
aI3872
aI3873
aI3875
aI3877
aI3878
aI3879
aI3915
aI3925
aI3927
aI3951
aI3952
aI3960
aI3970
aI3973
aI3976
aI3980
aI3982
aI3983
aI3984
aI3985
aI3986
aI3987
aI3988
aI4136
aI4229
aI4230
aI4354
aI4355
aI4356
aI4357
aI4358
aI4598
aI4599
aI4600
aI4601
aI4602
as(I40
I60
I0
tp85
(lp86
I648
aI655
aI656
aI657
aI658
aI660
aI668
aI669
aI670
aI673
aI674
aI683
aI808
aI810
aI854
aI855
aI856
aI865
aI866
aI1136
aI1137
aI1138
aI1140
aI1141
aI1152
aI1153
aI1154
aI1155
aI1177
aI1178
aI1181
aI1192
aI1193
aI1194
aI1195
aI1199
aI1200
aI1201
aI1204
aI1205
aI1206
aI1210
aI1211
aI1212
aI1213
aI1214
aI1215
aI1923
aI1924
as(I47
I52
I1
tp87
(lp88
I2027
aI2029
aI2030
aI2229
aI2230
aI2232
aI2233
aI2234
aI2238
aI3362
aI3369
aI3370
aI3373
aI3378
aI3381
aI3382
aI3383
aI3386
aI3398
aI3401
aI3402
aI3403
aI3404
aI3405
aI3409
aI3410
aI3421
aI3422
aI3423
aI4008
aI4022
aI4024
aI4025
aI4490
aI4491
aI4492
as(I40
I59
I1
tp89
(lp90
I1972
aI1974
aI1975
aI1976
aI1977
aI1978
aI1980
aI1981
aI1982
aI1989
aI1990
aI1997
aI1998
aI2001
aI2002
aI2003
aI2005
aI2006
aI2010
aI2013
aI2148
aI2153
aI2154
aI2155
aI2156
aI2157
as(I41
I58
I1
tp91
(lp92
I1973
aI2007
aI2008
aI2009
aI2011
aI2012
aI2014
aI2016
aI2147
aI2149
aI2152
aI2158
aI2159
aI2167
aI3438
as(I48
I51
I1
tp93
(lp94
I2028
aI2031
aI2032
aI2035
aI2039
aI2040
aI2041
aI2046
aI2047
aI2054
aI2239
aI2240
aI2241
aI2243
aI3360
aI3361
aI3371
aI3372
aI3387
aI3396
aI3397
aI3406
aI3407
aI3408
aI3411
aI3412
aI3420
aI4007
aI4009
aI4010
aI4011
aI4015
aI4018
aI4019
aI4020
aI4021
aI4023
aI4493
aI4495
aI4502
aI4505
as(I55
I45
I0
tp95
(lp96
I129
aI130
aI131
aI132
aI133
aI135
aI137
aI138
aI139
aI140
aI141
aI146
aI149
aI157
aI159
aI162
aI164
aI165
aI167
aI169
aI170
aI173
aI174
aI332
aI333
aI334
aI335
aI336
aI340
aI341
aI348
aI352
aI353
aI356
aI357
aI374
aI382
aI385
aI386
aI388
aI389
aI392
aI393
aI407
aI425
aI427
aI716
aI778
aI779
aI780
aI781
aI782
aI908
aI926
aI930
aI933
aI934
aI973
aI976
aI979
aI980
aI1334
aI1336
aI1337
aI1342
aI1475
aI1477
aI1479
aI1480
aI1482
aI1483
aI1484
aI1485
aI1486
aI1494
aI1496
aI1497
aI1498
aI1500
aI1501
aI1502
aI1503
aI1630
aI1631
aI1636
aI1637
aI1639
aI1641
aI1642
aI1644
aI1645
aI1646
aI1648
aI1657
aI1658
aI1659
aI1663
aI1664
aI1682
aI1691
aI1693
aI1694
aI1697
aI1698
aI1699
aI1703
aI1705
aI2308
aI2309
aI2310
aI2312
aI2315
aI2317
aI2322
aI2323
aI2328
aI2329
aI2330
aI2332
aI2342
aI2343
aI2344
aI2353
aI2354
aI2355
aI2356
aI2359
aI2368
aI2369
aI2374
aI2376
aI2384
aI2385
aI2526
aI2527
aI2529
aI2531
aI2532
aI2533
aI2534
aI2535
aI2537
aI2538
aI2539
aI2540
aI2703
aI2704
aI2705
aI2708
aI2709
aI2710
aI2717
aI2718
aI2722
aI2723
aI2727
aI3033
aI3034
aI3035
aI3036
aI3056
aI3057
aI3058
aI3059
aI3060
aI3061
aI3063
aI3154
aI3157
aI3158
aI3160
aI3162
aI3207
aI3208
aI3209
aI3211
aI3213
aI3218
aI3219
aI3223
aI3229
aI3233
aI3263
aI3264
aI3266
aI3267
aI3283
aI3284
aI3517
aI3524
aI3525
aI3527
aI3531
aI3532
aI3533
aI3534
aI3555
aI3580
aI3582
aI3585
aI3590
aI3591
aI3592
aI3593
aI3594
aI3596
aI3606
aI3662
aI3665
aI3666
aI3667
aI3869
aI3874
aI3926
aI3928
aI3936
aI3940
aI3941
aI3946
aI3947
aI3948
aI3949
aI3950
aI3953
aI3955
aI3958
aI3959
aI4231
aI4233
aI4234
aI4324
aI4325
aI4326
aI4327
aI4329
aI4330
aI4331
aI4332
aI4353
aI4580
aI4597
as(I44
I56
I0
tp97
(lp98
I5
aI6
aI225
aI226
aI238
aI240
aI241
aI242
aI243
aI244
aI245
aI246
aI493
aI494
aI510
aI511
aI512
aI513
aI514
aI517
aI518
aI519
aI520
aI522
aI629
aI632
aI633
aI634
aI637
aI640
aI641
aI693
aI800
aI801
aI873
aI874
aI875
aI1055
aI1057
aI1058
aI1059
aI1060
aI1063
aI1125
aI1126
aI1128
aI1219
aI1221
aI1227
aI1248
aI1388
aI1391
aI1907
aI1908
aI1912
aI1915
aI1917
aI2120
aI2121
aI2122
aI2123
aI2124
aI2125
aI2126
aI2127
aI2598
aI2600
aI2602
aI2603
aI2604
aI2607
aI2608
aI2610
aI2616
aI2633
aI2958
aI2959
aI2960
aI2961
aI2963
aI2964
aI3310
aI3311
aI3318
aI3765
aI3771
aI3775
aI3776
aI3777
aI3778
aI3779
aI3784
aI4443
aI4445
aI4447
aI4448
aI4456
aI4459
aI4830
aI4836
aI4837
aI4838
aI4839
aI4840
aI4841
aI4842
aI4845
as(I46
I54
I0
tp99
(lp100
I0
aI3
aI8
aI12
aI27
aI29
aI30
aI32
aI33
aI34
aI35
aI37
aI38
aI39
aI40
aI41
aI46
aI48
aI49
aI50
aI58
aI64
aI216
aI217
aI223
aI248
aI250
aI256
aI257
aI258
aI265
aI269
aI272
aI273
aI275
aI276
aI277
aI278
aI279
aI281
aI282
aI283
aI284
aI286
aI288
aI289
aI291
aI459
aI460
aI461
aI462
aI463
aI482
aI483
aI486
aI487
aI490
aI496
aI497
aI502
aI503
aI507
aI524
aI618
aI623
aI624
aI695
aI696
aI697
aI797
aI877
aI878
aI880
aI881
aI883
aI884
aI890
aI1011
aI1012
aI1016
aI1017
aI1053
aI1065
aI1118
aI1119
aI1121
aI1122
aI1250
aI1251
aI1373
aI1376
aI1378
aI1379
aI1380
aI1381
aI1382
aI1383
aI1386
aI1394
aI1436
aI1871
aI1872
aI1873
aI1874
aI1878
aI1880
aI1881
aI1883
aI1884
aI1886
aI1887
aI1888
aI1891
aI1892
aI1897
aI1898
aI1899
aI1900
aI1904
aI1910
aI2075
aI2076
aI2077
aI2078
aI2079
aI2080
aI2081
aI2085
aI2088
aI2089
aI2098
aI2099
aI2101
aI2102
aI2103
aI2104
aI2105
aI2106
aI2107
aI2108
aI2112
aI2113
aI2114
aI2437
aI2442
aI2446
aI2449
aI2454
aI2463
aI2594
aI2614
aI2635
aI2636
aI2637
aI2638
aI2639
aI2792
aI2794
aI2801
aI2802
aI2803
aI2812
aI2813
aI2815
aI2818
aI2819
aI2927
aI2928
aI2929
aI2930
aI2931
aI2932
aI2934
aI2935
aI2936
aI2937
aI2938
aI2956
aI2969
aI2972
aI2976
aI2977
aI2978
aI2979
aI3307
aI3322
aI3323
aI3324
aI3325
aI3481
aI3482
aI3484
aI3486
aI3487
aI3493
aI3494
aI3760
aI3761
aI3781
aI3782
aI3786
aI3787
aI3788
aI3789
aI3793
aI3795
aI3796
aI3800
aI3813
aI3814
aI3815
aI3839
aI3843
aI3848
aI3849
aI3850
aI3854
aI3856
aI3857
aI4209
aI4439
aI4450
aI4452
aI4453
aI4454
aI4665
aI4666
aI4669
aI4684
aI4685
aI4687
aI4805
aI4806
aI4807
aI4815
aI4816
aI4825
aI4826
aI4827
aI4847
aI4853
aI4854
aI4856
aI4858
as(I49
I50
I1
tp101
(lp102
I2033
aI2034
aI2036
aI2037
aI2038
aI2042
aI2043
aI2044
aI2045
aI2048
aI2049
aI2050
aI2051
aI2052
aI2053
aI2242
aI2244
aI2245
aI2246
aI3359
aI3388
aI3392
aI3393
aI3394
aI3395
aI3413
aI3414
aI3415
aI3417
aI3418
aI3419
aI4005
aI4006
aI4012
aI4013
aI4014
aI4016
aI4017
aI4494
aI4496
aI4501
aI4503
aI4504
aI4506
aI4507
as(I49
I49
I2
tp103
(lp104
I4049
aI4051
aI4052
aI4053
aI4061
aI4063
aI4067
aI4072
aI4073
aI4074
aI4075
aI4085
as(I51
I49
I0
tp105
(lp106
I122
aI123
aI197
aI199
aI200
aI296
aI297
aI299
aI300
aI308
aI309
aI318
aI319
aI321
aI322
aI323
aI324
aI431
aI432
aI433
aI435
aI437
aI555
aI556
aI557
aI558
aI559
aI566
aI567
aI571
aI572
aI576
aI588
aI589
aI595
aI596
aI597
aI708
aI709
aI710
aI787
aI788
aI790
aI898
aI899
aI1004
aI1260
aI1266
aI1267
aI1268
aI1269
aI1270
aI1271
aI1272
aI1273
aI1275
aI1290
aI1291
aI1292
aI1297
aI1324
aI1351
aI1453
aI1454
aI1455
aI1465
aI1709
aI1710
aI1711
aI1716
aI1720
aI1721
aI1730
aI1731
aI1732
aI1741
aI1784
aI1786
aI1787
aI1788
aI1789
aI1790
aI1801
aI1823
aI1824
aI1825
aI1828
aI1829
aI1831
aI1834
aI1848
aI1849
aI1853
aI2254
aI2256
aI2280
aI2281
aI2294
aI2295
aI2380
aI2394
aI2399
aI2480
aI2487
aI2488
aI2489
aI2490
aI2491
aI2544
aI2546
aI2548
aI2549
aI2552
aI2555
aI2556
aI2557
aI2558
aI2567
aI2568
aI2569
aI2570
aI2571
aI2572
aI2573
aI2649
aI2650
aI2651
aI2654
aI2658
aI2660
aI2661
aI2662
aI2663
aI2666
aI2667
aI2668
aI2669
aI2680
aI2681
aI2682
aI2683
aI2684
aI2692
aI2693
aI2734
aI2739
aI2740
aI2744
aI2746
aI2833
aI2834
aI2835
aI2840
aI2882
aI2883
aI2884
aI2900
aI2901
aI2909
aI2912
aI2913
aI2914
aI2919
aI3015
aI3018
aI3019
aI3021
aI3022
aI3023
aI3043
aI3046
aI3047
aI3171
aI3172
aI3173
aI3174
aI3175
aI3196
aI3239
aI3240
aI3249
aI3253
aI3288
aI3289
aI3291
aI3292
aI3341
aI3342
aI3345
aI3346
aI3347
aI3348
aI3351
aI3355
aI3356
aI3508
aI3612
aI3631
aI3632
aI3634
aI3636
aI3637
aI3639
aI3640
aI3644
aI3645
aI3653
aI3654
aI3681
aI3682
aI3683
aI3684
aI3685
aI3691
aI3694
aI3696
aI3708
aI3709
aI3710
aI3711
aI3723
aI3724
aI3862
aI3886
aI3895
aI3898
aI3903
aI3905
aI3910
aI3911
aI3912
aI4139
aI4140
aI4177
aI4180
aI4181
aI4183
aI4184
aI4187
aI4191
aI4196
aI4197
aI4218
aI4219
aI4375
aI4380
aI4382
aI4383
aI4384
aI4385
aI4401
aI4402
aI4404
aI4412
aI4610
aI4611
aI4614
aI4619
aI4638
aI4729
aI4731
aI4732
aI4733
aI4734
aI4735
aI4736
aI4740
aI4741
aI4744
aI4745
aI4748
aI4752
aI4753
aI4754
aI4757
aI4758
aI4759
aI4760
aI4761
aI4762
aI4768
aI4769
aI4787
aI4789
aI4790
aI4791
aI4868
aI4869
aI4870
aI4871
aI4872
aI4882
aI4893
aI4895
as(I44
I55
I1
tp107
(lp108
I2020
aI2021
aI2174
aI2176
aI2194
aI2195
aI2196
aI2197
aI2200
aI2214
aI2219
aI2220
aI3428
aI3434
aI3447
aI3448
aI3449
aI3450
aI3455
aI3456
aI4460
aI4461
aI4463
aI4470
aI4472
aI4473
aI4478
as(I58
I42
I0
tp109
(lp110
I411
aI418
aI723
aI725
aI726
aI736
aI737
aI738
aI741
aI742
aI746
aI772
aI916
aI938
aI939
aI943
aI944
aI946
aI955
aI957
aI964
aI1489
aI1508
aI1509
aI1512
aI1513
aI1624
aI1625
aI1626
aI1627
aI1673
aI1675
aI2349
aI3068
aI3070
aI3071
aI3072
aI3119
aI3122
aI3124
aI3126
aI3129
aI3137
aI3138
aI3149
aI3543
aI3549
aI4241
aI4250
aI4253
aI4254
aI4271
aI4274
aI4276
aI4277
aI4278
aI4279
aI4282
aI4283
aI4290
aI4297
aI4298
aI4299
aI4300
aI4302
aI4306
aI4307
aI4313
aI4314
aI4315
aI4316
aI4317
aI4318
aI4340
aI4344
aI4345
aI4347
aI4562
aI4564
aI4566
aI4569
aI4583
aI4584
aI4587
as(I50
I50
I0
tp111
(lp112
I87
aI88
aI116
aI117
aI119
aI121
aI201
aI202
aI203
aI207
aI208
aI295
aI298
aI434
aI436
aI438
aI445
aI546
aI548
aI552
aI554
aI568
aI569
aI570
aI573
aI574
aI575
aI598
aI600
aI703
aI704
aI707
aI789
aI791
aI792
aI897
aI1005
aI1006
aI1007
aI1033
aI1034
aI1035
aI1036
aI1037
aI1078
aI1108
aI1109
aI1110
aI1111
aI1258
aI1259
aI1261
aI1265
aI1276
aI1277
aI1289
aI1293
aI1294
aI1295
aI1296
aI1298
aI1299
aI1307
aI1309
aI1311
aI1312
aI1313
aI1314
aI1315
aI1322
aI1323
aI1352
aI1353
aI1354
aI1355
aI1357
aI1358
aI1362
aI1363
aI1368
aI1402
aI1403
aI1404
aI1405
aI1413
aI1414
aI1445
aI1446
aI1447
aI1448
aI1451
aI1452
aI1712
aI1713
aI1715
aI1722
aI1729
aI1742
aI1744
aI1746
aI1762
aI1763
aI1764
aI1766
aI1767
aI1782
aI1783
aI1785
aI1791
aI1792
aI1798
aI1799
aI1800
aI1802
aI1807
aI1808
aI1809
aI1812
aI1820
aI1821
aI1822
aI1830
aI1835
aI1842
aI1843
aI1845
aI1847
aI1854
aI1855
aI2253
aI2255
aI2257
aI2258
aI2259
aI2260
aI2261
aI2262
aI2263
aI2264
aI2265
aI2266
aI2267
aI2278
aI2279
aI2282
aI2285
aI2286
aI2287
aI2288
aI2289
aI2293
aI2395
aI2396
aI2397
aI2398
aI2400
aI2401
aI2402
aI2403
aI2404
aI2405
aI2406
aI2409
aI2420
aI2423
aI2424
aI2425
aI2478
aI2479
aI2481
aI2482
aI2483
aI2486
aI2545
aI2547
aI2550
aI2551
aI2574
aI2575
aI2576
aI2577
aI2578
aI2579
aI2645
aI2647
aI2648
aI2652
aI2653
aI2659
aI2664
aI2665
aI2670
aI2671
aI2673
aI2674
aI2677
aI2678
aI2679
aI2685
aI2686
aI2687
aI2688
aI2689
aI2691
aI2735
aI2736
aI2738
aI2741
aI2742
aI2743
aI2745
aI2747
aI2763
aI2764
aI2828
aI2831
aI2832
aI2885
aI2892
aI2894
aI2899
aI2902
aI2903
aI2906
aI2908
aI2910
aI2911
aI2915
aI2916
aI2917
aI2918
aI2920
aI2921
aI2989
aI2990
aI2997
aI3010
aI3011
aI3014
aI3016
aI3017
aI3176
aI3177
aI3178
aI3193
aI3194
aI3195
aI3241
aI3244
aI3245
aI3246
aI3247
aI3248
aI3290
aI3293
aI3294
aI3335
aI3338
aI3339
aI3340
aI3343
aI3344
aI3349
aI3350
aI3357
aI3507
aI3613
aI3614
aI3615
aI3629
aI3630
aI3635
aI3638
aI3641
aI3642
aI3643
aI3646
aI3647
aI3648
aI3651
aI3652
aI3686
aI3687
aI3688
aI3689
aI3690
aI3697
aI3698
aI3699
aI3700
aI3701
aI3702
aI3703
aI3707
aI3725
aI3750
aI3861
aI3887
aI3888
aI3889
aI3893
aI3894
aI3899
aI3900
aI3901
aI3902
aI3904
aI3906
aI3907
aI3908
aI3909
aI4141
aI4160
aI4165
aI4166
aI4168
aI4169
aI4170
aI4171
aI4172
aI4176
aI4185
aI4186
aI4192
aI4194
aI4195
aI4198
aI4199
aI4200
aI4201
aI4202
aI4217
aI4381
aI4386
aI4387
aI4388
aI4389
aI4390
aI4395
aI4398
aI4399
aI4400
aI4403
aI4413
aI4415
aI4424
aI4425
aI4615
aI4616
aI4617
aI4618
aI4620
aI4621
aI4623
aI4624
aI4637
aI4639
aI4641
aI4642
aI4643
aI4645
aI4646
aI4673
aI4674
aI4677
aI4705
aI4707
aI4715
aI4716
aI4725
aI4726
aI4728
aI4737
aI4738
aI4739
aI4742
aI4743
aI4746
aI4747
aI4749
aI4750
aI4751
aI4770
aI4771
aI4784
aI4785
aI4786
aI4788
aI4792
aI4867
aI4873
aI4875
aI4879
aI4881
aI4883
aI4885
aI4886
aI4887
aI4888
aI4889
aI4891
aI4892
aI4896
aI4897
aI4898
as(I56
I43
I1
tp113
(lp114
I1573
aI1574
aI1575
aI1577
aI1603
aI1604
aI1607
aI1608
aI1609
aI1615
aI1616
aI1617
aI1618
aI4108
aI4109
aI4548
aI4549
aI4550
aI4551
aI4556
aI4557
aI4559
as(I57
I43
I0
tp115
(lp116
I343
aI344
aI409
aI410
aI412
aI415
aI416
aI417
aI419
aI718
aI719
aI720
aI721
aI722
aI724
aI773
aI911
aI912
aI913
aI914
aI915
aI917
aI918
aI919
aI920
aI921
aI922
aI923
aI924
aI936
aI937
aI947
aI948
aI950
aI951
aI952
aI953
aI954
aI956
aI965
aI966
aI967
aI970
aI1488
aI1490
aI1491
aI1506
aI1507
aI1510
aI1511
aI1620
aI1623
aI1628
aI1651
aI1653
aI1654
aI1670
aI1671
aI1672
aI1676
aI1677
aI1678
aI2337
aI2338
aI2346
aI2347
aI2348
aI2350
aI3066
aI3067
aI3069
aI3120
aI3121
aI3127
aI3128
aI3130
aI3131
aI3135
aI3136
aI3150
aI3151
aI3221
aI3227
aI3538
aI3540
aI3541
aI3542
aI3544
aI3545
aI3546
aI3547
aI3548
aI3550
aI3551
aI3552
aI3599
aI3600
aI3932
aI3943
aI3944
aI4238
aI4239
aI4240
aI4251
aI4252
aI4272
aI4273
aI4301
aI4308
aI4309
aI4310
aI4311
aI4312
aI4319
aI4334
aI4335
aI4339
aI4341
aI4342
aI4343
aI4348
aI4351
aI4561
aI4563
aI4567
aI4568
aI4570
aI4578
aI4582
aI4585
aI4586
aI4588
aI4595
as(I38
I62
I0
tp117
(lp118
I662
aI664
aI665
aI676
aI678
aI680
aI813
aI816
aI817
aI846
aI847
aI848
aI849
aI851
aI858
aI859
aI862
aI1158
aI1159
aI1161
aI1165
aI1173
aI1175
aI1197
aI1926
aI1930
as(I33
I67
I0
tp119
(lp120
I1950
as(I47
I51
I2
tp121
(lp122
I4039
aI4040
aI4041
aI4042
aI4043
aI4045
aI4047
aI4070
aI4079
aI4080
aI4082
as(I43
I57
I0
tp123
(lp124
I227
aI228
aI229
aI230
aI231
aI234
aI236
aI237
aI515
aI516
aI642
aI643
aI688
aI689
aI691
aI692
aI802
aI803
aI805
aI871
aI872
aI1061
aI1062
aI1127
aI1129
aI1130
aI1131
aI1218
aI1220
aI1222
aI1223
aI1224
aI1225
aI1226
aI1228
aI1229
aI1230
aI1246
aI1247
aI1389
aI1390
aI1918
aI2128
aI2129
aI2130
aI2131
aI2132
aI2141
aI2143
aI2601
aI2605
aI2606
aI2609
aI2617
aI2618
aI2619
aI2629
aI2630
aI2631
aI2632
aI3312
aI3313
aI3314
aI3315
aI3316
aI3317
aI3766
aI3767
aI3768
aI3770
aI3772
aI3773
aI3774
aI4444
aI4446
aI4457
aI4458
as(I50
I48
I2
tp125
(lp126
I4086
aI4087
aI4088
as.