(dp0
(I1
I2
I2
I5
I0
tp1
(lp2
I2
as(I2
I1
I2
I5
I0
tp3
(lp4
I0
aI1
as(I1
I3
I1
I5
I0
tp5
(lp6
I5
as(I1
I4
I1
I4
I0
tp7
(lp8
I6
aI8
as(I2
I4
I1
I3
I0
tp9
(lp10
I7
as(I1
I2
I1
I6
I0
tp11
(lp12
I3
aI4
as(I1
I4
I2
I3
I0
tp13
(lp14
I9
as.