(dp0
(I22
I32
I22
I24
I0
tp1
(lp2
I183
as(I24
I25
I31
I20
I0
tp3
(lp4
I27
as(I24
I23
I33
I20
I0
tp5
(lp6
I33
aI35
as(I25
I30
I22
I23
I0
tp7
(lp8
I154
aI155
aI157
as(I22
I31
I24
I23
I0
tp9
(lp10
I170
aI171
as(I23
I23
I33
I21
I0
tp11
(lp12
I42
as(I22
I32
I23
I23
I0
tp13
(lp14
I172
aI178
aI180
aI181
as(I26
I30
I21
I23
I0
tp15
(lp16
I151
aI152
aI153
as(I25
I29
I23
I23
I0
tp17
(lp18
I197
aI199
as(I24
I27
I25
I24
I0
tp19
(lp20
I101
aI102
as(I23
I25
I31
I21
I0
tp21
(lp22
I45
aI47
as(I30
I26
I20
I24
I0
tp23
(lp24
I141
as(I25
I24
I30
I21
I0
tp25
(lp26
I8
aI16
aI17
as(I22
I32
I24
I22
I0
tp27
(lp28
I163
aI167
aI168
aI169
aI175
aI176
aI177
as(I24
I22
I33
I21
I0
tp29
(lp30
I4
aI36
aI38
as(I26
I23
I30
I21
I0
tp31
(lp32
I19
aI20
aI22
as(I25
I23
I33
I19
I0
tp33
(lp34
I34
as(I24
I22
I32
I22
I0
tp35
(lp36
I5
as(I21
I28
I23
I28
I0
tp37
(lp38
I118
as(I22
I22
I34
I22
I0
tp39
(lp40
I40
as(I23
I25
I29
I23
I0
tp41
(lp42
I51
as(I26
I23
I31
I20
I0
tp43
(lp44
I23
aI24
as(I27
I26
I22
I25
I0
tp45
(lp46
I77
as(I26
I26
I21
I27
I0
tp47
(lp48
I128
aI129
as(I26
I29
I21
I24
I0
tp49
(lp50
I150
as(I23
I25
I30
I22
I0
tp51
(lp52
I50
as(I21
I33
I23
I23
I0
tp53
(lp54
I179
as(I25
I22
I32
I21
I0
tp55
(lp56
I2
as(I27
I26
I25
I22
I0
tp57
(lp58
I69
aI70
as(I23
I32
I22
I23
I0
tp59
(lp60
I159
as(I23
I26
I30
I21
I0
tp61
(lp62
I56
as(I25
I21
I32
I22
I0
tp63
(lp64
I0
as(I23
I31
I21
I25
I0
tp65
(lp66
I190
as(I24
I31
I22
I23
I0
tp67
(lp68
I158
as(I24
I25
I32
I19
I0
tp69
(lp70
I29
as(I23
I33
I23
I21
I0
tp71
(lp72
I165
as(I22
I27
I24
I27
I0
tp73
(lp74
I122
aI123
as(I25
I22
I31
I22
I0
tp75
(lp76
I1
aI6
as(I24
I25
I29
I22
I0
tp77
(lp78
I10
aI11
aI13
as(I23
I26
I26
I25
I0
tp79
(lp80
I109
as(I29
I26
I20
I25
I0
tp81
(lp82
I132
aI142
aI143
as(I24
I29
I24
I23
I0
tp83
(lp84
I87
aI88
aI200
as(I28
I27
I20
I25
I0
tp85
(lp86
I135
aI137
aI138
aI139
aI146
as(I28
I26
I21
I25
I0
tp87
(lp88
I147
as(I25
I23
I30
I22
I0
tp89
(lp90
I7
as(I24
I28
I27
I21
I0
tp91
(lp92
I61
as(I22
I33
I23
I22
I0
tp93
(lp94
I173
aI174
as(I23
I22
I34
I21
I0
tp95
(lp96
I37
aI39
as(I28
I26
I20
I26
I0
tp97
(lp98
I131
aI134
aI145
as(I23
I28
I25
I24
I0
tp99
(lp100
I97
aI98
aI99
aI106
as(I24
I25
I30
I21
I0
tp101
(lp102
I9
as(I24
I27
I22
I27
I0
tp103
(lp104
I126
as(I24
I28
I24
I24
I0
tp105
(lp106
I100
aI104
aI105
as(I23
I32
I23
I22
I0
tp107
(lp108
I160
aI161
aI162
as(I24
I27
I28
I21
I0
tp109
(lp110
I59
aI60
as(I24
I23
I32
I21
I0
tp111
(lp112
I32
as(I28
I26
I23
I23
I0
tp113
(lp114
I79
as(I24
I28
I25
I23
I0
tp115
(lp116
I93
aI94
aI95
as(I29
I25
I20
I26
I0
tp117
(lp118
I144
as(I24
I27
I24
I25
I0
tp119
(lp120
I103
as(I25
I31
I21
I23
I0
tp121
(lp122
I156
aI193
as(I25
I26
I22
I27
I0
tp123
(lp124
I127
as(I25
I24
I31
I20
I0
tp125
(lp126
I25
aI26
as(I26
I24
I29
I21
I0
tp127
(lp128
I21
as(I26
I27
I24
I23
I0
tp129
(lp130
I82
aI83
aI84
as(I23
I31
I22
I24
I0
tp131
(lp132
I184
aI185
aI186
aI187
aI188
aI189
as(I25
I28
I25
I22
I0
tp133
(lp134
I90
aI91
as(I26
I24
I30
I20
I0
tp135
(lp136
I18
as(I23
I25
I32
I20
I0
tp137
(lp138
I28
as(I26
I26
I25
I23
I0
tp139
(lp140
I71
as(I26
I26
I26
I22
I0
tp141
(lp142
I66
aI67
as(I22
I25
I31
I22
I0
tp143
(lp144
I48
aI49
as(I27
I26
I23
I24
I0
tp145
(lp146
I75
aI76
aI78
as(I22
I24
I33
I21
I0
tp147
(lp148
I43
as(I22
I28
I23
I27
I0
tp149
(lp150
I115
aI116
as(I22
I23
I34
I21
I0
tp151
(lp152
I41
as(I24
I26
I29
I21
I0
tp153
(lp154
I54
aI55
as(I21
I28
I24
I27
I0
tp155
(lp156
I119
as(I29
I27
I20
I24
I0
tp157
(lp158
I140
as(I27
I28
I21
I24
I0
tp159
(lp160
I149
as(I25
I22
I33
I20
I0
tp161
(lp162
I3
as(I27
I27
I23
I23
I0
tp163
(lp164
I80
as(I22
I28
I22
I28
I0
tp165
(lp166
I117
as(I23
I26
I29
I22
I0
tp167
(lp168
I52
aI53
as(I24
I24
I32
I20
I0
tp169
(lp170
I30
aI31
as(I22
I33
I24
I21
I0
tp171
(lp172
I164
aI166
as(I23
I28
I26
I23
I0
tp173
(lp174
I96
as(I26
I25
I26
I23
I0
tp175
(lp176
I72
as(I24
I31
I21
I24
I0
tp177
(lp178
I191
as(I29
I26
I19
I26
I0
tp179
(lp180
I133
as(I25
I29
I22
I24
I0
tp181
(lp182
I195
aI196
as(I23
I27
I23
I27
I0
tp183
(lp184
I124
aI125
as(I24
I25
I28
I23
I0
tp185
(lp186
I12
as(I22
I28
I24
I26
I0
tp187
(lp188
I114
as(I25
I25
I29
I21
I0
tp189
(lp190
I15
as(I27
I26
I26
I21
I0
tp191
(lp192
I68
as(I24
I29
I25
I22
I0
tp193
(lp194
I92
as(I25
I25
I28
I22
I0
tp195
(lp196
I14
as(I23
I27
I29
I21
I0
tp197
(lp198
I57
aI58
as(I25
I29
I24
I22
I0
tp199
(lp200
I89
as(I21
I27
I25
I27
I0
tp201
(lp202
I120
aI121
as(I23
I24
I31
I22
I0
tp203
(lp204
I46
as(I28
I27
I21
I24
I0
tp205
(lp206
I136
aI148
as(I26
I28
I23
I23
I0
tp207
(lp208
I81
aI198
as(I25
I30
I21
I24
I0
tp209
(lp210
I192
aI194
as(I22
I33
I22
I23
I0
tp211
(lp212
I182
as(I25
I26
I27
I22
I0
tp213
(lp214
I64
aI65
as(I22
I25
I32
I21
I0
tp215
(lp216
I44
as(I25
I28
I24
I23
I0
tp217
(lp218
I85
aI86
as(I23
I27
I26
I24
I0
tp219
(lp220
I110
as(I27
I26
I21
I26
I0
tp221
(lp222
I130
as(I27
I25
I24
I24
I0
tp223
(lp224
I74
as(I26
I25
I25
I24
I0
tp225
(lp226
I73
as(I23
I27
I25
I25
I0
tp227
(lp228
I107
aI108
aI111
aI112
as(I23
I27
I24
I26
I0
tp229
(lp230
I113
as(I25
I27
I27
I21
I0
tp231
(lp232
I62
aI63
as.