(dp0
(I14
I5
I8
I13
I0
tp1
(lp2
I24
aI38
as(I12
I12
I5
I11
I0
tp3
(lp4
I178
aI179
as(I15
I5
I8
I12
I0
tp5
(lp6
I23
as(I13
I12
I5
I10
I0
tp7
(lp8
I181
aI182
aI183
as(I12
I12
I6
I10
I0
tp9
(lp10
I180
aI185
as(I13
I6
I6
I15
I0
tp11
(lp12
I28
aI29
aI30
aI61
as(I11
I6
I12
I11
I0
tp13
(lp14
I91
aI229
as(I10
I12
I5
I13
I0
tp15
(lp16
I167
aI174
as(I15
I6
I12
I7
I0
tp17
(lp18
I107
as(I12
I9
I11
I8
I0
tp19
(lp20
I121
as(I10
I5
I15
I10
I0
tp21
(lp22
I219
as(I10
I12
I7
I11
I0
tp23
(lp24
I138
aI164
as(I10
I7
I12
I11
I0
tp25
(lp26
I234
aI235
as(I10
I9
I7
I14
I0
tp27
(lp28
I3
as(I7
I7
I12
I14
I0
tp29
(lp30
I239
as(I13
I8
I10
I9
I0
tp31
(lp32
I195
as(I10
I6
I14
I10
I0
tp33
(lp34
I220
aI231
as(I9
I13
I7
I11
I0
tp35
(lp36
I158
aI159
as(I9
I6
I14
I11
I0
tp37
(lp38
I227
as(I14
I6
I8
I12
I0
tp39
(lp40
I22
aI75
as(I14
I8
I8
I10
I0
tp41
(lp42
I193
as(I9
I5
I15
I11
I0
tp43
(lp44
I217
aI218
aI222
as(I10
I10
I7
I13
I0
tp45
(lp46
I8
aI9
as(I11
I7
I8
I14
I0
tp47
(lp48
I83
aI84
as(I11
I12
I6
I11
I0
tp49
(lp50
I165
as(I15
I5
I11
I9
I0
tp51
(lp52
I104
as(I14
I5
I6
I15
I0
tp53
(lp54
I59
aI60
as(I14
I4
I13
I9
I0
tp55
(lp56
I212
as(I12
I6
I11
I11
I0
tp57
(lp58
I92
as(I14
I6
I7
I13
I0
tp59
(lp60
I72
as(I11
I10
I10
I9
I0
tp61
(lp62
I119
as(I9
I5
I14
I12
I0
tp63
(lp64
I223
aI224
aI225
aI226
as(I17
I5
I7
I11
I0
tp65
(lp66
I50
as(I8
I13
I5
I14
I0
tp67
(lp68
I169
aI170
aI172
as(I12
I6
I9
I13
I0
tp69
(lp70
I16
as(I12
I6
I8
I14
I0
tp71
(lp72
I82
as(I10
I7
I11
I12
I0
tp73
(lp74
I88
as(I14
I4
I7
I15
I0
tp75
(lp76
I36
as(I14
I5
I7
I14
I0
tp77
(lp78
I25
aI26
aI68
as(I12
I6
I7
I15
I0
tp79
(lp80
I31
aI32
aI62
aI63
aI66
as(I12
I5
I14
I9
I0
tp81
(lp82
I203
as(I17
I4
I11
I8
I0
tp83
(lp84
I102
as(I14
I5
I12
I9
I0
tp85
(lp86
I97
aI210
aI211
as(I16
I6
I7
I11
I0
tp87
(lp88
I53
as(I16
I5
I12
I7
I0
tp89
(lp90
I99
aI100
aI106
as(I15
I6
I6
I13
I0
tp91
(lp92
I55
aI71
as(I13
I5
I11
I11
I0
tp93
(lp94
I93
aI94
as(I14
I4
I8
I14
I0
tp95
(lp96
I37
as(I9
I6
I15
I10
I0
tp97
(lp98
I221
as(I6
I13
I9
I12
I0
tp99
(lp100
I151
aI152
aI153
as(I13
I4
I7
I16
I0
tp101
(lp102
I35
as(I13
I8
I9
I10
I0
tp103
(lp104
I194
as(I9
I13
I5
I13
I0
tp105
(lp106
I168
as(I13
I5
I9
I13
I0
tp107
(lp108
I78
aI79
as(I11
I8
I8
I13
I0
tp109
(lp110
I13
as(I9
I7
I12
I12
I0
tp111
(lp112
I89
aI237
as(I13
I5
I12
I10
I0
tp113
(lp114
I95
as(I13
I6
I9
I12
I0
tp115
(lp116
I21
as(I16
I5
I8
I11
I0
tp117
(lp118
I47
aI52
as(I9
I7
I13
I11
I0
tp119
(lp120
I236
as(I14
I9
I9
I8
I0
tp121
(lp122
I128
aI130
as(I15
I4
I8
I13
I0
tp123
(lp124
I39
aI40
aI41
aI42
aI44
aI45
as(I13
I9
I8
I10
I0
tp125
(lp126
I192
as(I8
I12
I7
I13
I0
tp127
(lp128
I140
as(I10
I12
I6
I12
I0
tp129
(lp130
I162
aI166
as(I16
I4
I11
I9
I0
tp131
(lp132
I103
as(I12
I13
I5
I10
I0
tp133
(lp134
I184
as(I12
I11
I6
I11
I0
tp135
(lp136
I186
aI187
as(I8
I13
I8
I11
I0
tp137
(lp138
I145
aI157
as(I15
I5
I12
I8
I0
tp139
(lp140
I98
aI105
as(I13
I7
I12
I8
I0
tp141
(lp142
I109
as(I12
I11
I8
I9
I0
tp143
(lp144
I189
as(I13
I7
I11
I9
I0
tp145
(lp146
I197
aI198
as(I16
I4
I8
I12
I0
tp147
(lp148
I43
aI46
aI48
as(I8
I12
I9
I11
I0
tp149
(lp150
I144
as(I13
I6
I7
I14
I0
tp151
(lp152
I64
aI65
aI67
aI81
as(I14
I6
I11
I9
I0
tp153
(lp154
I199
as(I7
I13
I8
I12
I0
tp155
(lp156
I142
aI147
as(I13
I5
I13
I9
I0
tp157
(lp158
I208
aI209
aI213
as(I10
I5
I14
I11
I0
tp159
(lp160
I216
as(I7
I13
I9
I11
I0
tp161
(lp162
I143
aI154
aI155
as(I10
I9
I8
I13
I0
tp163
(lp164
I0
aI1
aI2
aI10
as(I14
I7
I12
I7
I0
tp165
(lp166
I108
aI110
as(I9
I13
I6
I12
I0
tp167
(lp168
I161
as(I13
I5
I7
I15
I0
tp169
(lp170
I27
as(I12
I10
I9
I9
I0
tp171
(lp172
I132
as(I14
I6
I12
I8
I0
tp173
(lp174
I111
aI200
as(I12
I7
I9
I12
I0
tp175
(lp176
I15
aI19
aI20
as(I10
I6
I13
I11
I0
tp177
(lp178
I228
aI230
as(I12
I10
I10
I8
I0
tp179
(lp180
I122
aI124
aI125
as(I13
I8
I11
I8
I0
tp181
(lp182
I113
as(I11
I5
I13
I11
I0
tp183
(lp184
I215
as(I10
I7
I13
I10
I0
tp185
(lp186
I233
as(I11
I12
I5
I12
I0
tp187
(lp188
I175
aI176
as(I12
I5
I7
I16
I0
tp189
(lp190
I33
aI34
as(I8
I7
I12
I13
I0
tp191
(lp192
I238
as(I11
I7
I10
I12
I0
tp193
(lp194
I18
as(I11
I6
I13
I10
I0
tp195
(lp196
I205
aI206
aI232
as(I12
I8
I10
I10
I0
tp197
(lp198
I115
as(I8
I12
I5
I15
I0
tp199
(lp200
I171
as(I11
I12
I7
I10
I0
tp201
(lp202
I137
as(I10
I13
I6
I11
I0
tp203
(lp204
I163
as(I11
I7
I9
I13
I0
tp205
(lp206
I17
aI85
as(I13
I6
I12
I9
I0
tp207
(lp208
I201
as(I12
I9
I10
I9
I0
tp209
(lp210
I117
aI118
aI120
aI123
as(I13
I9
I10
I8
I0
tp211
(lp212
I127
as(I12
I8
I11
I9
I0
tp213
(lp214
I114
aI116
as(I14
I5
I11
I10
I0
tp215
(lp216
I96
as(I9
I12
I7
I12
I0
tp217
(lp218
I139
as(I10
I7
I10
I13
I0
tp219
(lp220
I86
aI87
as(I7
I14
I8
I11
I0
tp221
(lp222
I146
aI156
as(I12
I5
I13
I10
I0
tp223
(lp224
I214
as(I12
I8
I8
I12
I0
tp225
(lp226
I14
as(I13
I10
I9
I8
I0
tp227
(lp228
I126
aI131
as(I11
I11
I9
I9
I0
tp229
(lp230
I133
aI134
as(I16
I5
I7
I12
I0
tp231
(lp232
I51
as(I15
I6
I7
I12
I0
tp233
(lp234
I54
aI56
aI73
aI74
as(I12
I11
I7
I10
I0
tp235
(lp236
I188
as(I11
I11
I8
I10
I0
tp237
(lp238
I135
aI136
as(I11
I8
I7
I14
I0
tp239
(lp240
I12
as(I6
I13
I8
I13
I0
tp241
(lp242
I150
as(I9
I12
I5
I14
I0
tp243
(lp244
I173
as(I10
I6
I12
I12
I0
tp245
(lp246
I90
as(I17
I4
I12
I7
I0
tp247
(lp248
I101
as(I8
I13
I7
I12
I0
tp249
(lp250
I160
as(I13
I6
I8
I13
I0
tp251
(lp252
I76
aI77
aI80
as(I11
I9
I7
I13
I0
tp253
(lp254
I4
aI5
aI6
aI7
aI11
as(I17
I4
I8
I11
I0
tp255
(lp256
I49
as(I13
I10
I7
I10
I0
tp257
(lp258
I191
as(I15
I9
I8
I8
I0
tp259
(lp260
I129
as(I12
I6
I13
I9
I0
tp261
(lp262
I202
aI204
aI207
as(I15
I5
I7
I13
I0
tp263
(lp264
I57
aI69
aI70
as(I7
I12
I8
I13
I0
tp265
(lp266
I141
aI148
aI149
as(I13
I10
I8
I9
I0
tp267
(lp268
I190
as(I15
I5
I6
I14
I0
tp269
(lp270
I58
as(I12
I11
I5
I12
I0
tp271
(lp272
I177
as(I14
I7
I10
I9
I0
tp273
(lp274
I196
as(I14
I7
I11
I8
I0
tp275
(lp276
I112
as.